
/home/liaozetao/Documents/ics/am-kernels/tests/cpu-tests/build/matrix-mul-x86-nemu.elf:     file format elf32-i386


Disassembly of section .text:

00100000 <_start>:
  100000:	bd 00 00 00 00       	mov    $0x0,%ebp
  100005:	bc 00 90 10 00       	mov    $0x109000,%esp
  10000a:	e8 e5 00 00 00       	call   1000f4 <_trm_init>
  10000f:	90                   	nop

00100010 <check>:
  100010:	55                   	push   %ebp
  100011:	89 e5                	mov    %esp,%ebp
  100013:	83 ec 08             	sub    $0x8,%esp
  100016:	80 7d 08 00          	cmpb   $0x0,0x8(%ebp)
  10001a:	74 02                	je     10001e <check+0xe>
  10001c:	c9                   	leave  
  10001d:	c3                   	ret    
  10001e:	83 ec 0c             	sub    $0xc,%esp
  100021:	6a 01                	push   $0x1
  100023:	e8 c0 00 00 00       	call   1000e8 <halt>

00100028 <main>:
  100028:	8d 4c 24 04          	lea    0x4(%esp),%ecx
  10002c:	83 e4 f0             	and    $0xfffffff0,%esp
  10002f:	ff 71 fc             	pushl  -0x4(%ecx)
  100032:	55                   	push   %ebp
  100033:	89 e5                	mov    %esp,%ebp
  100035:	57                   	push   %edi
  100036:	56                   	push   %esi
  100037:	53                   	push   %ebx
  100038:	51                   	push   %ecx
  100039:	83 ec 18             	sub    $0x18,%esp
  10003c:	c7 45 e0 00 00 00 00 	movl   $0x0,-0x20(%ebp)
  100043:	be 50 04 10 00       	mov    $0x100450,%esi
  100048:	8b 45 e0             	mov    -0x20(%ebp),%eax
  10004b:	89 c7                	mov    %eax,%edi
  10004d:	05 60 04 10 00       	add    $0x100460,%eax
  100052:	89 45 e4             	mov    %eax,-0x1c(%ebp)
  100055:	8d 76 00             	lea    0x0(%esi),%esi
  100058:	8b 55 e4             	mov    -0x1c(%ebp),%edx
  10005b:	8d 9e 70 fe ff ff    	lea    -0x190(%esi),%ebx
  100061:	31 c9                	xor    %ecx,%ecx
  100063:	90                   	nop
  100064:	8b 02                	mov    (%edx),%eax
  100066:	0f af 03             	imul   (%ebx),%eax
  100069:	01 c1                	add    %eax,%ecx
  10006b:	83 c2 04             	add    $0x4,%edx
  10006e:	83 c3 28             	add    $0x28,%ebx
  100071:	39 f3                	cmp    %esi,%ebx
  100073:	75 ef                	jne    100064 <main+0x3c>
  100075:	89 8f 00 06 10 00    	mov    %ecx,0x100600(%edi)
  10007b:	83 ec 0c             	sub    $0xc,%esp
  10007e:	31 c0                	xor    %eax,%eax
  100080:	39 8f 20 01 10 00    	cmp    %ecx,0x100120(%edi)
  100086:	0f 94 c0             	sete   %al
  100089:	50                   	push   %eax
  10008a:	e8 81 ff ff ff       	call   100010 <check>
  10008f:	c7 04 24 01 00 00 00 	movl   $0x1,(%esp)
  100096:	e8 75 ff ff ff       	call   100010 <check>
  10009b:	83 c4 10             	add    $0x10,%esp
  10009e:	8d 73 04             	lea    0x4(%ebx),%esi
  1000a1:	83 c7 04             	add    $0x4,%edi
  1000a4:	81 fb 74 04 10 00    	cmp    $0x100474,%ebx
  1000aa:	75 ac                	jne    100058 <main+0x30>
  1000ac:	83 ec 0c             	sub    $0xc,%esp
  1000af:	6a 01                	push   $0x1
  1000b1:	e8 5a ff ff ff       	call   100010 <check>
  1000b6:	83 c4 10             	add    $0x10,%esp
  1000b9:	83 45 e0 28          	addl   $0x28,-0x20(%ebp)
  1000bd:	8b 45 e0             	mov    -0x20(%ebp),%eax
  1000c0:	3d 90 01 00 00       	cmp    $0x190,%eax
  1000c5:	0f 85 78 ff ff ff    	jne    100043 <main+0x1b>
  1000cb:	83 ec 0c             	sub    $0xc,%esp
  1000ce:	6a 01                	push   $0x1
  1000d0:	e8 3b ff ff ff       	call   100010 <check>
  1000d5:	83 c4 10             	add    $0x10,%esp
  1000d8:	31 c0                	xor    %eax,%eax
  1000da:	8d 65 f0             	lea    -0x10(%ebp),%esp
  1000dd:	59                   	pop    %ecx
  1000de:	5b                   	pop    %ebx
  1000df:	5e                   	pop    %esi
  1000e0:	5f                   	pop    %edi
  1000e1:	5d                   	pop    %ebp
  1000e2:	8d 61 fc             	lea    -0x4(%ecx),%esp
  1000e5:	c3                   	ret    
  1000e6:	66 90                	xchg   %ax,%ax

001000e8 <halt>:
  1000e8:	55                   	push   %ebp
  1000e9:	89 e5                	mov    %esp,%ebp
  1000eb:	8b 45 08             	mov    0x8(%ebp),%eax
  1000ee:	d6                   	(bad)  
  1000ef:	eb fe                	jmp    1000ef <halt+0x7>
  1000f1:	66 90                	xchg   %ax,%ax
  1000f3:	90                   	nop

001000f4 <_trm_init>:
  1000f4:	55                   	push   %ebp
  1000f5:	89 e5                	mov    %esp,%ebp
  1000f7:	83 ec 14             	sub    $0x14,%esp
  1000fa:	68 0a 01 10 00       	push   $0x10010a
  1000ff:	e8 24 ff ff ff       	call   100028 <main>
  100104:	d6                   	(bad)  
  100105:	83 c4 10             	add    $0x10,%esp
  100108:	eb fe                	jmp    100108 <_trm_init+0x14>
