
/home/liaozetao/Documents/ics/am-kernels/tests/klib-tests/build/klibtest-x86-nemu.elf:     file format elf32-i386


Disassembly of section .text:

00100000 <_start>:
  100000:	bd 00 00 00 00       	mov    $0x0,%ebp
  100005:	bc 00 a0 10 00       	mov    $0x10a000,%esp
  10000a:	e8 29 05 00 00       	call   100538 <_trm_init>
  10000f:	90                   	nop

00100010 <main>:
  100010:	8d 4c 24 04          	lea    0x4(%esp),%ecx
  100014:	83 e4 f0             	and    $0xfffffff0,%esp
  100017:	ff 71 fc             	pushl  -0x4(%ecx)
  10001a:	55                   	push   %ebp
  10001b:	89 e5                	mov    %esp,%ebp
  10001d:	53                   	push   %ebx
  10001e:	51                   	push   %ecx
  10001f:	8b 01                	mov    (%ecx),%eax
  100021:	8a 00                	mov    (%eax),%al
  100023:	83 e8 61             	sub    $0x61,%eax
  100026:	3c 07                	cmp    $0x7,%al
  100028:	0f 87 9f 00 00 00    	ja     1000cd <main+0xbd>
  10002e:	0f b6 c0             	movzbl %al,%eax
  100031:	ff 24 85 28 09 10 00 	jmp    *0x100928(,%eax,4)
  100038:	c7 05 60 12 10 00 44 	movl   $0x100444,0x101260
  10003f:	04 10 00 
  100042:	e8 fd 03 00 00       	call   100444 <test_sprintf>
  100047:	31 c0                	xor    %eax,%eax
  100049:	8d 65 f8             	lea    -0x8(%ebp),%esp
  10004c:	59                   	pop    %ecx
  10004d:	5b                   	pop    %ebx
  10004e:	5d                   	pop    %ebp
  10004f:	8d 61 fc             	lea    -0x4(%ecx),%esp
  100052:	c3                   	ret    
  100053:	c7 05 60 12 10 00 00 	movl   $0x100500,0x101260
  10005a:	05 10 00 
  10005d:	e8 9e 04 00 00       	call   100500 <test_printf>
  100062:	eb e3                	jmp    100047 <main+0x37>
  100064:	c7 05 60 12 10 00 0c 	movl   $0x10020c,0x101260
  10006b:	02 10 00 
  10006e:	e8 99 01 00 00       	call   10020c <test_memcpy>
  100073:	eb d2                	jmp    100047 <main+0x37>
  100075:	c7 05 60 12 10 00 a8 	movl   $0x1002a8,0x101260
  10007c:	02 10 00 
  10007f:	e8 24 02 00 00       	call   1002a8 <test_memcmp>
  100084:	eb c1                	jmp    100047 <main+0x37>
  100086:	c7 05 60 12 10 00 18 	movl   $0x100118,0x101260
  10008d:	01 10 00 
  100090:	e8 83 00 00 00       	call   100118 <test_memset>
  100095:	eb b0                	jmp    100047 <main+0x37>
  100097:	c7 05 60 12 10 00 24 	movl   $0x100324,0x101260
  10009e:	03 10 00 
  1000a1:	e8 7e 02 00 00       	call   100324 <test_strcat>
  1000a6:	eb 9f                	jmp    100047 <main+0x37>
  1000a8:	c7 05 60 12 10 00 8c 	movl   $0x10038c,0x101260
  1000af:	03 10 00 
  1000b2:	e8 d5 02 00 00       	call   10038c <test_strcmp>
  1000b7:	eb 8e                	jmp    100047 <main+0x37>
  1000b9:	c7 05 60 12 10 00 ac 	movl   $0x1004ac,0x101260
  1000c0:	04 10 00 
  1000c3:	e8 e4 03 00 00       	call   1004ac <test_memmove>
  1000c8:	e9 7a ff ff ff       	jmp    100047 <main+0x37>
  1000cd:	83 ec 0c             	sub    $0xc,%esp
  1000d0:	68 00 09 10 00       	push   $0x100900
  1000d5:	e8 56 06 00 00       	call   100730 <printf>
  1000da:	83 c4 10             	add    $0x10,%esp
  1000dd:	31 db                	xor    %ebx,%ebx
  1000df:	90                   	nop
  1000e0:	43                   	inc    %ebx
  1000e1:	81 fb 00 01 00 00    	cmp    $0x100,%ebx
  1000e7:	0f 84 5a ff ff ff    	je     100047 <main+0x37>
  1000ed:	8b 04 9d c0 09 10 00 	mov    0x1009c0(,%ebx,4),%eax
  1000f4:	85 c0                	test   %eax,%eax
  1000f6:	74 e8                	je     1000e0 <main+0xd0>
  1000f8:	52                   	push   %edx
  1000f9:	50                   	push   %eax
  1000fa:	53                   	push   %ebx
  1000fb:	68 1c 09 10 00       	push   $0x10091c
  100100:	e8 2b 06 00 00       	call   100730 <printf>
  100105:	83 c4 10             	add    $0x10,%esp
  100108:	43                   	inc    %ebx
  100109:	81 fb 00 01 00 00    	cmp    $0x100,%ebx
  10010f:	75 dc                	jne    1000ed <main+0xdd>
  100111:	e9 31 ff ff ff       	jmp    100047 <main+0x37>
  100116:	66 90                	xchg   %ax,%ax

00100118 <test_memset>:
  100118:	55                   	push   %ebp
  100119:	89 e5                	mov    %esp,%ebp
  10011b:	57                   	push   %edi
  10011c:	56                   	push   %esi
  10011d:	53                   	push   %ebx
  10011e:	83 ec 1c             	sub    $0x1c,%esp
  100121:	c7 45 dc 00 00 00 00 	movl   $0x0,-0x24(%ebp)
  100128:	8b 45 dc             	mov    -0x24(%ebp),%eax
  10012b:	89 c7                	mov    %eax,%edi
  10012d:	89 c2                	mov    %eax,%edx
  10012f:	40                   	inc    %eax
  100130:	89 45 dc             	mov    %eax,-0x24(%ebp)
  100133:	89 c3                	mov    %eax,%ebx
  100135:	8d 87 80 12 10 00    	lea    0x101280(%edi),%eax
  10013b:	89 45 e0             	mov    %eax,-0x20(%ebp)
  10013e:	66 90                	xchg   %ax,%ax
  100140:	b8 01 00 00 00       	mov    $0x1,%eax
  100145:	8d 76 00             	lea    0x0(%esi),%esi
  100148:	88 80 7f 12 10 00    	mov    %al,0x10127f(%eax)
  10014e:	40                   	inc    %eax
  10014f:	83 f8 21             	cmp    $0x21,%eax
  100152:	75 f4                	jne    100148 <test_memset+0x30>
  100154:	8d 34 1a             	lea    (%edx,%ebx,1),%esi
  100157:	d1 fe                	sar    %esi
  100159:	51                   	push   %ecx
  10015a:	89 d8                	mov    %ebx,%eax
  10015c:	29 d0                	sub    %edx,%eax
  10015e:	89 55 e4             	mov    %edx,-0x1c(%ebp)
  100161:	50                   	push   %eax
  100162:	56                   	push   %esi
  100163:	ff 75 e0             	pushl  -0x20(%ebp)
  100166:	e8 cd 06 00 00       	call   100838 <memset>
  10016b:	83 c4 10             	add    $0x10,%esp
  10016e:	31 c0                	xor    %eax,%eax
  100170:	8b 55 e4             	mov    -0x1c(%ebp),%edx
  100173:	eb 0f                	jmp    100184 <test_memset+0x6c>
  100175:	8d 76 00             	lea    0x0(%esi),%esi
  100178:	0f b6 88 80 12 10 00 	movzbl 0x101280(%eax),%ecx
  10017f:	40                   	inc    %eax
  100180:	39 c1                	cmp    %eax,%ecx
  100182:	75 62                	jne    1001e6 <test_memset+0xce>
  100184:	39 f8                	cmp    %edi,%eax
  100186:	75 f0                	jne    100178 <test_memset+0x60>
  100188:	39 df                	cmp    %ebx,%edi
  10018a:	7d 4c                	jge    1001d8 <test_memset+0xc0>
  10018c:	89 f8                	mov    %edi,%eax
  10018e:	66 90                	xchg   %ax,%ax
  100190:	0f b6 88 80 12 10 00 	movzbl 0x101280(%eax),%ecx
  100197:	39 ce                	cmp    %ecx,%esi
  100199:	75 69                	jne    100204 <test_memset+0xec>
  10019b:	40                   	inc    %eax
  10019c:	39 d8                	cmp    %ebx,%eax
  10019e:	75 f0                	jne    100190 <test_memset+0x78>
  1001a0:	8d 58 01             	lea    0x1(%eax),%ebx
  1001a3:	89 d9                	mov    %ebx,%ecx
  1001a5:	83 f8 1f             	cmp    $0x1f,%eax
  1001a8:	7f 13                	jg     1001bd <test_memset+0xa5>
  1001aa:	66 90                	xchg   %ax,%ax
  1001ac:	0f b6 81 7f 12 10 00 	movzbl 0x10127f(%ecx),%eax
  1001b3:	39 c8                	cmp    %ecx,%eax
  1001b5:	75 2f                	jne    1001e6 <test_memset+0xce>
  1001b7:	41                   	inc    %ecx
  1001b8:	83 f9 21             	cmp    $0x21,%ecx
  1001bb:	75 ef                	jne    1001ac <test_memset+0x94>
  1001bd:	83 fb 21             	cmp    $0x21,%ebx
  1001c0:	0f 85 7a ff ff ff    	jne    100140 <test_memset+0x28>
  1001c6:	83 7d dc 20          	cmpl   $0x20,-0x24(%ebp)
  1001ca:	0f 85 58 ff ff ff    	jne    100128 <test_memset+0x10>
  1001d0:	8d 65 f4             	lea    -0xc(%ebp),%esp
  1001d3:	5b                   	pop    %ebx
  1001d4:	5e                   	pop    %esi
  1001d5:	5f                   	pop    %edi
  1001d6:	5d                   	pop    %ebp
  1001d7:	c3                   	ret    
  1001d8:	43                   	inc    %ebx
  1001d9:	89 d9                	mov    %ebx,%ecx
  1001db:	0f b6 81 7f 12 10 00 	movzbl 0x10127f(%ecx),%eax
  1001e2:	39 c8                	cmp    %ecx,%eax
  1001e4:	74 d1                	je     1001b7 <test_memset+0x9f>
  1001e6:	52                   	push   %edx
  1001e7:	6a 06                	push   $0x6
  1001e9:	68 c0 0d 10 00       	push   $0x100dc0
  1001ee:	68 0d 0e 10 00       	push   $0x100e0d
  1001f3:	e8 38 05 00 00       	call   100730 <printf>
  1001f8:	c7 04 24 01 00 00 00 	movl   $0x1,(%esp)
  1001ff:	e8 28 03 00 00       	call   10052c <halt>
  100204:	50                   	push   %eax
  100205:	6a 0d                	push   $0xd
  100207:	eb e0                	jmp    1001e9 <test_memset+0xd1>
  100209:	66 90                	xchg   %ax,%ax
  10020b:	90                   	nop

0010020c <test_memcpy>:
  10020c:	55                   	push   %ebp
  10020d:	89 e5                	mov    %esp,%ebp
  10020f:	57                   	push   %edi
  100210:	56                   	push   %esi
  100211:	53                   	push   %ebx
  100212:	83 ec 1c             	sub    $0x1c,%esp
  100215:	31 db                	xor    %ebx,%ebx
  100217:	89 de                	mov    %ebx,%esi
  100219:	43                   	inc    %ebx
  10021a:	8d 86 c0 12 10 00    	lea    0x1012c0(%esi),%eax
  100220:	89 45 e0             	mov    %eax,-0x20(%ebp)
  100223:	8d 86 a0 12 10 00    	lea    0x1012a0(%esi),%eax
  100229:	89 45 e4             	mov    %eax,-0x1c(%ebp)
  10022c:	89 df                	mov    %ebx,%edi
  10022e:	be 01 00 00 00       	mov    $0x1,%esi
  100233:	90                   	nop
  100234:	b8 01 00 00 00       	mov    $0x1,%eax
  100239:	8d 76 00             	lea    0x0(%esi),%esi
  10023c:	88 80 bf 12 10 00    	mov    %al,0x1012bf(%eax)
  100242:	40                   	inc    %eax
  100243:	83 f8 21             	cmp    $0x21,%eax
  100246:	75 f4                	jne    10023c <test_memcpy+0x30>
  100248:	52                   	push   %edx
  100249:	56                   	push   %esi
  10024a:	ff 75 e0             	pushl  -0x20(%ebp)
  10024d:	ff 75 e4             	pushl  -0x1c(%ebp)
  100250:	e8 57 06 00 00       	call   1008ac <memcpy>
  100255:	83 c4 10             	add    $0x10,%esp
  100258:	39 fb                	cmp    %edi,%ebx
  10025a:	7d 17                	jge    100273 <test_memcpy+0x67>
  10025c:	89 d8                	mov    %ebx,%eax
  10025e:	66 90                	xchg   %ax,%ax
  100260:	8a 90 c0 12 10 00    	mov    0x1012c0(%eax),%dl
  100266:	38 90 a0 12 10 00    	cmp    %dl,0x1012a0(%eax)
  10026c:	75 19                	jne    100287 <test_memcpy+0x7b>
  10026e:	40                   	inc    %eax
  10026f:	39 f8                	cmp    %edi,%eax
  100271:	75 ed                	jne    100260 <test_memcpy+0x54>
  100273:	47                   	inc    %edi
  100274:	46                   	inc    %esi
  100275:	83 ff 21             	cmp    $0x21,%edi
  100278:	75 ba                	jne    100234 <test_memcpy+0x28>
  10027a:	83 fb 20             	cmp    $0x20,%ebx
  10027d:	75 98                	jne    100217 <test_memcpy+0xb>
  10027f:	8d 65 f4             	lea    -0xc(%ebp),%esp
  100282:	5b                   	pop    %ebx
  100283:	5e                   	pop    %esi
  100284:	5f                   	pop    %edi
  100285:	5d                   	pop    %ebp
  100286:	c3                   	ret    
  100287:	50                   	push   %eax
  100288:	6a 08                	push   $0x8
  10028a:	68 28 0e 10 00       	push   $0x100e28
  10028f:	68 0d 0e 10 00       	push   $0x100e0d
  100294:	e8 97 04 00 00       	call   100730 <printf>
  100299:	c7 04 24 01 00 00 00 	movl   $0x1,(%esp)
  1002a0:	e8 87 02 00 00       	call   10052c <halt>
  1002a5:	66 90                	xchg   %ax,%ax
  1002a7:	90                   	nop

001002a8 <test_memcmp>:
  1002a8:	55                   	push   %ebp
  1002a9:	89 e5                	mov    %esp,%ebp
  1002ab:	83 ec 14             	sub    $0x14,%esp
  1002ae:	ff 35 14 12 10 00    	pushl  0x101214
  1002b4:	e8 e3 04 00 00       	call   10079c <strlen>
  1002b9:	83 c4 0c             	add    $0xc,%esp
  1002bc:	50                   	push   %eax
  1002bd:	ff 35 1c 12 10 00    	pushl  0x10121c
  1002c3:	ff 35 14 12 10 00    	pushl  0x101214
  1002c9:	e8 02 06 00 00       	call   1008d0 <memcmp>
  1002ce:	83 c4 10             	add    $0x10,%esp
  1002d1:	85 c0                	test   %eax,%eax
  1002d3:	75 2c                	jne    100301 <test_memcmp+0x59>
  1002d5:	83 ec 0c             	sub    $0xc,%esp
  1002d8:	ff 35 18 12 10 00    	pushl  0x101218
  1002de:	e8 b9 04 00 00       	call   10079c <strlen>
  1002e3:	83 c4 0c             	add    $0xc,%esp
  1002e6:	50                   	push   %eax
  1002e7:	ff 35 18 12 10 00    	pushl  0x101218
  1002ed:	ff 35 14 12 10 00    	pushl  0x101214
  1002f3:	e8 d8 05 00 00       	call   1008d0 <memcmp>
  1002f8:	83 c4 10             	add    $0x10,%esp
  1002fb:	85 c0                	test   %eax,%eax
  1002fd:	74 20                	je     10031f <test_memcmp+0x77>
  1002ff:	c9                   	leave  
  100300:	c3                   	ret    
  100301:	52                   	push   %edx
  100302:	6a 10                	push   $0x10
  100304:	68 78 0e 10 00       	push   $0x100e78
  100309:	68 0d 0e 10 00       	push   $0x100e0d
  10030e:	e8 1d 04 00 00       	call   100730 <printf>
  100313:	c7 04 24 01 00 00 00 	movl   $0x1,(%esp)
  10031a:	e8 0d 02 00 00       	call   10052c <halt>
  10031f:	50                   	push   %eax
  100320:	6a 11                	push   $0x11
  100322:	eb e0                	jmp    100304 <test_memcmp+0x5c>

00100324 <test_strcat>:
  100324:	55                   	push   %ebp
  100325:	89 e5                	mov    %esp,%ebp
  100327:	56                   	push   %esi
  100328:	53                   	push   %ebx
  100329:	83 ec 48             	sub    $0x48,%esp
  10032c:	68 0c 0f 10 00       	push   $0x100f0c
  100331:	8d 45 b8             	lea    -0x48(%ebp),%eax
  100334:	50                   	push   %eax
  100335:	e8 82 04 00 00       	call   1007bc <strcat>
  10033a:	89 c6                	mov    %eax,%esi
  10033c:	83 c4 10             	add    $0x10,%esp
  10033f:	31 db                	xor    %ebx,%ebx
  100341:	eb 0d                	jmp    100350 <test_strcat+0x2c>
  100343:	90                   	nop
  100344:	8a 83 0c 0f 10 00    	mov    0x100f0c(%ebx),%al
  10034a:	38 04 1e             	cmp    %al,(%esi,%ebx,1)
  10034d:	75 1c                	jne    10036b <test_strcat+0x47>
  10034f:	43                   	inc    %ebx
  100350:	83 ec 0c             	sub    $0xc,%esp
  100353:	68 0c 0f 10 00       	push   $0x100f0c
  100358:	e8 3f 04 00 00       	call   10079c <strlen>
  10035d:	83 c4 10             	add    $0x10,%esp
  100360:	39 d8                	cmp    %ebx,%eax
  100362:	77 e0                	ja     100344 <test_strcat+0x20>
  100364:	8d 65 f8             	lea    -0x8(%ebp),%esp
  100367:	5b                   	pop    %ebx
  100368:	5e                   	pop    %esi
  100369:	5d                   	pop    %ebp
  10036a:	c3                   	ret    
  10036b:	50                   	push   %eax
  10036c:	6a 09                	push   $0x9
  10036e:	68 1c 0f 10 00       	push   $0x100f1c
  100373:	68 0d 0e 10 00       	push   $0x100e0d
  100378:	e8 b3 03 00 00       	call   100730 <printf>
  10037d:	c7 04 24 01 00 00 00 	movl   $0x1,(%esp)
  100384:	e8 a3 01 00 00       	call   10052c <halt>
  100389:	66 90                	xchg   %ax,%ax
  10038b:	90                   	nop

0010038c <test_strcmp>:
  10038c:	55                   	push   %ebp
  10038d:	89 e5                	mov    %esp,%ebp
  10038f:	83 ec 0c             	sub    $0xc,%esp
  100392:	68 69 0f 10 00       	push   $0x100f69
  100397:	68 77 0f 10 00       	push   $0x100f77
  10039c:	68 e0 12 10 00       	push   $0x1012e0
  1003a1:	e8 d6 03 00 00       	call   10077c <sprintf>
  1003a6:	58                   	pop    %eax
  1003a7:	5a                   	pop    %edx
  1003a8:	68 69 0f 10 00       	push   $0x100f69
  1003ad:	68 e0 12 10 00       	push   $0x1012e0
  1003b2:	e8 4d 04 00 00       	call   100804 <strcmp>
  1003b7:	59                   	pop    %ecx
  1003b8:	5a                   	pop    %edx
  1003b9:	85 c0                	test   %eax,%eax
  1003bb:	0f 94 c0             	sete   %al
  1003be:	0f b6 c0             	movzbl %al,%eax
  1003c1:	50                   	push   %eax
  1003c2:	68 cd 10 10 00       	push   $0x1010cd
  1003c7:	e8 64 03 00 00       	call   100730 <printf>
  1003cc:	59                   	pop    %ecx
  1003cd:	58                   	pop    %eax
  1003ce:	ff 35 30 12 10 00    	pushl  0x101230
  1003d4:	ff 35 2c 12 10 00    	pushl  0x10122c
  1003da:	e8 25 04 00 00       	call   100804 <strcmp>
  1003df:	83 c4 10             	add    $0x10,%esp
  1003e2:	85 c0                	test   %eax,%eax
  1003e4:	79 34                	jns    10041a <test_strcmp+0x8e>
  1003e6:	83 ec 08             	sub    $0x8,%esp
  1003e9:	68 0c 0f 10 00       	push   $0x100f0c
  1003ee:	68 0c 0f 10 00       	push   $0x100f0c
  1003f3:	e8 0c 04 00 00       	call   100804 <strcmp>
  1003f8:	83 c4 10             	add    $0x10,%esp
  1003fb:	85 c0                	test   %eax,%eax
  1003fd:	75 3e                	jne    10043d <test_strcmp+0xb1>
  1003ff:	83 ec 08             	sub    $0x8,%esp
  100402:	68 7a 0f 10 00       	push   $0x100f7a
  100407:	68 7c 0f 10 00       	push   $0x100f7c
  10040c:	e8 f3 03 00 00       	call   100804 <strcmp>
  100411:	83 c4 10             	add    $0x10,%esp
  100414:	85 c0                	test   %eax,%eax
  100416:	79 20                	jns    100438 <test_strcmp+0xac>
  100418:	c9                   	leave  
  100419:	c3                   	ret    
  10041a:	51                   	push   %ecx
  10041b:	6a 14                	push   $0x14
  10041d:	68 80 0f 10 00       	push   $0x100f80
  100422:	68 0d 0e 10 00       	push   $0x100e0d
  100427:	e8 04 03 00 00       	call   100730 <printf>
  10042c:	c7 04 24 01 00 00 00 	movl   $0x1,(%esp)
  100433:	e8 f4 00 00 00       	call   10052c <halt>
  100438:	50                   	push   %eax
  100439:	6a 16                	push   $0x16
  10043b:	eb e0                	jmp    10041d <test_strcmp+0x91>
  10043d:	52                   	push   %edx
  10043e:	6a 15                	push   $0x15
  100440:	eb db                	jmp    10041d <test_strcmp+0x91>
  100442:	66 90                	xchg   %ax,%ax

00100444 <test_sprintf>:
  100444:	55                   	push   %ebp
  100445:	89 e5                	mov    %esp,%ebp
  100447:	53                   	push   %ebx
  100448:	81 ec 88 00 00 00    	sub    $0x88,%esp
  10044e:	68 69 0f 10 00       	push   $0x100f69
  100453:	68 77 0f 10 00       	push   $0x100f77
  100458:	8d 9d 78 ff ff ff    	lea    -0x88(%ebp),%ebx
  10045e:	53                   	push   %ebx
  10045f:	e8 18 03 00 00       	call   10077c <sprintf>
  100464:	5a                   	pop    %edx
  100465:	59                   	pop    %ecx
  100466:	68 69 0f 10 00       	push   $0x100f69
  10046b:	53                   	push   %ebx
  10046c:	e8 93 03 00 00       	call   100804 <strcmp>
  100471:	83 c4 10             	add    $0x10,%esp
  100474:	85 c0                	test   %eax,%eax
  100476:	75 16                	jne    10048e <test_sprintf+0x4a>
  100478:	83 ec 08             	sub    $0x8,%esp
  10047b:	53                   	push   %ebx
  10047c:	68 77 0f 10 00       	push   $0x100f77
  100481:	e8 aa 02 00 00       	call   100730 <printf>
  100486:	83 c4 10             	add    $0x10,%esp
  100489:	8b 5d fc             	mov    -0x4(%ebp),%ebx
  10048c:	c9                   	leave  
  10048d:	c3                   	ret    
  10048e:	50                   	push   %eax
  10048f:	6a 06                	push   $0x6
  100491:	68 20 10 10 00       	push   $0x101020
  100496:	68 0d 0e 10 00       	push   $0x100e0d
  10049b:	e8 90 02 00 00       	call   100730 <printf>
  1004a0:	c7 04 24 01 00 00 00 	movl   $0x1,(%esp)
  1004a7:	e8 80 00 00 00       	call   10052c <halt>

001004ac <test_memmove>:
  1004ac:	55                   	push   %ebp
  1004ad:	89 e5                	mov    %esp,%ebp
  1004af:	53                   	push   %ebx
  1004b0:	83 ec 58             	sub    $0x58,%esp
  1004b3:	6a 07                	push   $0x7
  1004b5:	68 0c 0f 10 00       	push   $0x100f0c
  1004ba:	8d 5d a8             	lea    -0x58(%ebp),%ebx
  1004bd:	53                   	push   %ebx
  1004be:	e8 9d 03 00 00       	call   100860 <memmove>
  1004c3:	83 c4 0c             	add    $0xc,%esp
  1004c6:	6a 07                	push   $0x7
  1004c8:	68 0c 0f 10 00       	push   $0x100f0c
  1004cd:	53                   	push   %ebx
  1004ce:	e8 fd 03 00 00       	call   1008d0 <memcmp>
  1004d3:	83 c4 10             	add    $0x10,%esp
  1004d6:	85 c0                	test   %eax,%eax
  1004d8:	75 05                	jne    1004df <test_memmove+0x33>
  1004da:	8b 5d fc             	mov    -0x4(%ebp),%ebx
  1004dd:	c9                   	leave  
  1004de:	c3                   	ret    
  1004df:	50                   	push   %eax
  1004e0:	6a 07                	push   $0x7
  1004e2:	68 70 10 10 00       	push   $0x101070
  1004e7:	68 0d 0e 10 00       	push   $0x100e0d
  1004ec:	e8 3f 02 00 00       	call   100730 <printf>
  1004f1:	c7 04 24 01 00 00 00 	movl   $0x1,(%esp)
  1004f8:	e8 2f 00 00 00       	call   10052c <halt>
  1004fd:	66 90                	xchg   %ax,%ax
  1004ff:	90                   	nop

00100500 <test_printf>:
  100500:	55                   	push   %ebp
  100501:	89 e5                	mov    %esp,%ebp
  100503:	83 ec 0c             	sub    $0xc,%esp
  100506:	6a 01                	push   $0x1
  100508:	68 40 42 0f 00       	push   $0xf4240
  10050d:	68 be 10 10 00       	push   $0x1010be
  100512:	e8 19 02 00 00       	call   100730 <printf>
  100517:	83 c4 10             	add    $0x10,%esp
  10051a:	c9                   	leave  
  10051b:	c3                   	ret    

0010051c <putch>:
  10051c:	55                   	push   %ebp
  10051d:	89 e5                	mov    %esp,%ebp
  10051f:	8b 45 08             	mov    0x8(%ebp),%eax
  100522:	ba f8 03 00 00       	mov    $0x3f8,%edx
  100527:	ee                   	out    %al,(%dx)
  100528:	5d                   	pop    %ebp
  100529:	c3                   	ret    
  10052a:	66 90                	xchg   %ax,%ax

0010052c <halt>:
  10052c:	55                   	push   %ebp
  10052d:	89 e5                	mov    %esp,%ebp
  10052f:	8b 45 08             	mov    0x8(%ebp),%eax
  100532:	d6                   	(bad)  
  100533:	eb fe                	jmp    100533 <halt+0x7>
  100535:	66 90                	xchg   %ax,%ax
  100537:	90                   	nop

00100538 <_trm_init>:
  100538:	55                   	push   %ebp
  100539:	89 e5                	mov    %esp,%ebp
  10053b:	83 ec 14             	sub    $0x14,%esp
  10053e:	68 d1 10 10 00       	push   $0x1010d1
  100543:	e8 c8 fa ff ff       	call   100010 <main>
  100548:	d6                   	(bad)  
  100549:	83 c4 10             	add    $0x10,%esp
  10054c:	eb fe                	jmp    10054c <_trm_init+0x14>
  10054e:	66 90                	xchg   %ax,%ax

00100550 <my_itoa>:
  100550:	55                   	push   %ebp
  100551:	89 e5                	mov    %esp,%ebp
  100553:	57                   	push   %edi
  100554:	56                   	push   %esi
  100555:	53                   	push   %ebx
  100556:	8b 4d 08             	mov    0x8(%ebp),%ecx
  100559:	8b 7d 0c             	mov    0xc(%ebp),%edi
  10055c:	85 c9                	test   %ecx,%ecx
  10055e:	78 7f                	js     1005df <my_itoa+0x8f>
  100560:	31 f6                	xor    %esi,%esi
  100562:	bb 09 00 00 00       	mov    $0x9,%ebx
  100567:	85 db                	test   %ebx,%ebx
  100569:	7e 4a                	jle    1005b5 <my_itoa+0x65>
  10056b:	90                   	nop
  10056c:	b8 01 00 00 00       	mov    $0x1,%eax
  100571:	31 d2                	xor    %edx,%edx
  100573:	90                   	nop
  100574:	8d 04 80             	lea    (%eax,%eax,4),%eax
  100577:	01 c0                	add    %eax,%eax
  100579:	42                   	inc    %edx
  10057a:	39 da                	cmp    %ebx,%edx
  10057c:	75 f6                	jne    100574 <my_itoa+0x24>
  10057e:	85 f6                	test   %esi,%esi
  100580:	75 3e                	jne    1005c0 <my_itoa+0x70>
  100582:	39 c8                	cmp    %ecx,%eax
  100584:	7e 12                	jle    100598 <my_itoa+0x48>
  100586:	85 db                	test   %ebx,%ebx
  100588:	74 42                	je     1005cc <my_itoa+0x7c>
  10058a:	4b                   	dec    %ebx
  10058b:	b8 01 00 00 00       	mov    $0x1,%eax
  100590:	85 db                	test   %ebx,%ebx
  100592:	7f d8                	jg     10056c <my_itoa+0x1c>
  100594:	39 c8                	cmp    %ecx,%eax
  100596:	7f ee                	jg     100586 <my_itoa+0x36>
  100598:	31 d2                	xor    %edx,%edx
  10059a:	66 90                	xchg   %ax,%ax
  10059c:	29 c1                	sub    %eax,%ecx
  10059e:	42                   	inc    %edx
  10059f:	39 c8                	cmp    %ecx,%eax
  1005a1:	7e f9                	jle    10059c <my_itoa+0x4c>
  1005a3:	83 c2 30             	add    $0x30,%edx
  1005a6:	89 f0                	mov    %esi,%eax
  1005a8:	46                   	inc    %esi
  1005a9:	88 14 07             	mov    %dl,(%edi,%eax,1)
  1005ac:	85 db                	test   %ebx,%ebx
  1005ae:	74 24                	je     1005d4 <my_itoa+0x84>
  1005b0:	4b                   	dec    %ebx
  1005b1:	85 db                	test   %ebx,%ebx
  1005b3:	7f b7                	jg     10056c <my_itoa+0x1c>
  1005b5:	b8 01 00 00 00       	mov    $0x1,%eax
  1005ba:	85 f6                	test   %esi,%esi
  1005bc:	74 c4                	je     100582 <my_itoa+0x32>
  1005be:	66 90                	xchg   %ax,%ax
  1005c0:	39 c1                	cmp    %eax,%ecx
  1005c2:	7d d4                	jge    100598 <my_itoa+0x48>
  1005c4:	89 f0                	mov    %esi,%eax
  1005c6:	b2 30                	mov    $0x30,%dl
  1005c8:	eb de                	jmp    1005a8 <my_itoa+0x58>
  1005ca:	66 90                	xchg   %ax,%ax
  1005cc:	c6 07 30             	movb   $0x30,(%edi)
  1005cf:	be 01 00 00 00       	mov    $0x1,%esi
  1005d4:	c6 04 37 00          	movb   $0x0,(%edi,%esi,1)
  1005d8:	89 f0                	mov    %esi,%eax
  1005da:	5b                   	pop    %ebx
  1005db:	5e                   	pop    %esi
  1005dc:	5f                   	pop    %edi
  1005dd:	5d                   	pop    %ebp
  1005de:	c3                   	ret    
  1005df:	f7 d9                	neg    %ecx
  1005e1:	c6 07 2d             	movb   $0x2d,(%edi)
  1005e4:	47                   	inc    %edi
  1005e5:	be 01 00 00 00       	mov    $0x1,%esi
  1005ea:	e9 73 ff ff ff       	jmp    100562 <my_itoa+0x12>
  1005ef:	90                   	nop

001005f0 <vsprintf>:
  1005f0:	55                   	push   %ebp
  1005f1:	89 e5                	mov    %esp,%ebp
  1005f3:	57                   	push   %edi
  1005f4:	56                   	push   %esi
  1005f5:	53                   	push   %ebx
  1005f6:	83 ec 4c             	sub    $0x4c,%esp
  1005f9:	8b 5d 0c             	mov    0xc(%ebp),%ebx
  1005fc:	8a 03                	mov    (%ebx),%al
  1005fe:	31 ff                	xor    %edi,%edi
  100600:	84 c0                	test   %al,%al
  100602:	74 43                	je     100647 <vsprintf+0x57>
  100604:	8b 75 08             	mov    0x8(%ebp),%esi
  100607:	eb 14                	jmp    10061d <vsprintf+0x2d>
  100609:	8d 76 00             	lea    0x0(%esi),%esi
  10060c:	88 04 3e             	mov    %al,(%esi,%edi,1)
  10060f:	47                   	inc    %edi
  100610:	89 d0                	mov    %edx,%eax
  100612:	89 da                	mov    %ebx,%edx
  100614:	89 c3                	mov    %eax,%ebx
  100616:	8a 42 01             	mov    0x1(%edx),%al
  100619:	84 c0                	test   %al,%al
  10061b:	74 2a                	je     100647 <vsprintf+0x57>
  10061d:	8d 53 01             	lea    0x1(%ebx),%edx
  100620:	3c 25                	cmp    $0x25,%al
  100622:	75 e8                	jne    10060c <vsprintf+0x1c>
  100624:	8a 4b 01             	mov    0x1(%ebx),%cl
  100627:	83 c3 02             	add    $0x2,%ebx
  10062a:	8d 41 bf             	lea    -0x41(%ecx),%eax
  10062d:	3c 37                	cmp    $0x37,%al
  10062f:	77 0b                	ja     10063c <vsprintf+0x4c>
  100631:	0f b6 c0             	movzbl %al,%eax
  100634:	ff 24 85 34 11 10 00 	jmp    *0x101134(,%eax,4)
  10063b:	90                   	nop
  10063c:	88 0c 3e             	mov    %cl,(%esi,%edi,1)
  10063f:	47                   	inc    %edi
  100640:	8a 42 01             	mov    0x1(%edx),%al
  100643:	84 c0                	test   %al,%al
  100645:	75 d6                	jne    10061d <vsprintf+0x2d>
  100647:	89 f8                	mov    %edi,%eax
  100649:	8d 65 f4             	lea    -0xc(%ebp),%esp
  10064c:	5b                   	pop    %ebx
  10064d:	5e                   	pop    %esi
  10064e:	5f                   	pop    %edi
  10064f:	5d                   	pop    %ebp
  100650:	c3                   	ret    
  100651:	8d 76 00             	lea    0x0(%esi),%esi
  100654:	89 55 c4             	mov    %edx,-0x3c(%ebp)
  100657:	8b 45 10             	mov    0x10(%ebp),%eax
  10065a:	83 c0 04             	add    $0x4,%eax
  10065d:	89 45 c0             	mov    %eax,-0x40(%ebp)
  100660:	83 ec 08             	sub    $0x8,%esp
  100663:	8d 45 d3             	lea    -0x2d(%ebp),%eax
  100666:	50                   	push   %eax
  100667:	8b 45 10             	mov    0x10(%ebp),%eax
  10066a:	ff 30                	pushl  (%eax)
  10066c:	e8 df fe ff ff       	call   100550 <my_itoa>
  100671:	89 c1                	mov    %eax,%ecx
  100673:	89 45 bc             	mov    %eax,-0x44(%ebp)
  100676:	83 c4 10             	add    $0x10,%esp
  100679:	85 c0                	test   %eax,%eax
  10067b:	8b 55 c4             	mov    -0x3c(%ebp),%edx
  10067e:	0f 8e 9f 00 00 00    	jle    100723 <vsprintf+0x133>
  100684:	8d 04 3e             	lea    (%esi,%edi,1),%eax
  100687:	89 55 b8             	mov    %edx,-0x48(%ebp)
  10068a:	89 7d b4             	mov    %edi,-0x4c(%ebp)
  10068d:	89 75 08             	mov    %esi,0x8(%ebp)
  100690:	31 f6                	xor    %esi,%esi
  100692:	89 5d 0c             	mov    %ebx,0xc(%ebp)
  100695:	89 cb                	mov    %ecx,%ebx
  100697:	89 c7                	mov    %eax,%edi
  100699:	8d 76 00             	lea    0x0(%esi),%esi
  10069c:	83 ec 0c             	sub    $0xc,%esp
  10069f:	0f be 54 35 d3       	movsbl -0x2d(%ebp,%esi,1),%edx
  1006a4:	52                   	push   %edx
  1006a5:	e8 72 fe ff ff       	call   10051c <putch>
  1006aa:	46                   	inc    %esi
  1006ab:	8a 44 35 d2          	mov    -0x2e(%ebp,%esi,1),%al
  1006af:	88 45 c4             	mov    %al,-0x3c(%ebp)
  1006b2:	88 44 37 ff          	mov    %al,-0x1(%edi,%esi,1)
  1006b6:	83 c4 10             	add    $0x10,%esp
  1006b9:	39 f3                	cmp    %esi,%ebx
  1006bb:	75 df                	jne    10069c <vsprintf+0xac>
  1006bd:	8b 55 b8             	mov    -0x48(%ebp),%edx
  1006c0:	8b 7d b4             	mov    -0x4c(%ebp),%edi
  1006c3:	8b 75 08             	mov    0x8(%ebp),%esi
  1006c6:	8b 5d 0c             	mov    0xc(%ebp),%ebx
  1006c9:	03 7d bc             	add    -0x44(%ebp),%edi
  1006cc:	8b 45 c0             	mov    -0x40(%ebp),%eax
  1006cf:	89 45 10             	mov    %eax,0x10(%ebp)
  1006d2:	e9 3f ff ff ff       	jmp    100616 <vsprintf+0x26>
  1006d7:	8b 45 10             	mov    0x10(%ebp),%eax
  1006da:	8b 00                	mov    (%eax),%eax
  1006dc:	8a 80 b4 10 10 00    	mov    0x1010b4(%eax),%al
  1006e2:	88 04 3e             	mov    %al,(%esi,%edi,1)
  1006e5:	8b 45 10             	mov    0x10(%ebp),%eax
  1006e8:	83 c0 04             	add    $0x4,%eax
  1006eb:	89 45 10             	mov    %eax,0x10(%ebp)
  1006ee:	47                   	inc    %edi
  1006ef:	e9 22 ff ff ff       	jmp    100616 <vsprintf+0x26>
  1006f4:	8b 45 10             	mov    0x10(%ebp),%eax
  1006f7:	83 c0 04             	add    $0x4,%eax
  1006fa:	89 45 c4             	mov    %eax,-0x3c(%ebp)
  1006fd:	8b 45 10             	mov    0x10(%ebp),%eax
  100700:	8b 08                	mov    (%eax),%ecx
  100702:	8a 01                	mov    (%ecx),%al
  100704:	84 c0                	test   %al,%al
  100706:	74 10                	je     100718 <vsprintf+0x128>
  100708:	29 f9                	sub    %edi,%ecx
  10070a:	66 90                	xchg   %ax,%ax
  10070c:	47                   	inc    %edi
  10070d:	88 44 3e ff          	mov    %al,-0x1(%esi,%edi,1)
  100711:	8a 04 39             	mov    (%ecx,%edi,1),%al
  100714:	84 c0                	test   %al,%al
  100716:	75 f4                	jne    10070c <vsprintf+0x11c>
  100718:	8b 45 c4             	mov    -0x3c(%ebp),%eax
  10071b:	89 45 10             	mov    %eax,0x10(%ebp)
  10071e:	e9 f3 fe ff ff       	jmp    100616 <vsprintf+0x26>
  100723:	8b 45 c0             	mov    -0x40(%ebp),%eax
  100726:	89 45 10             	mov    %eax,0x10(%ebp)
  100729:	e9 e8 fe ff ff       	jmp    100616 <vsprintf+0x26>
  10072e:	66 90                	xchg   %ax,%ax

00100730 <printf>:
  100730:	55                   	push   %ebp
  100731:	89 e5                	mov    %esp,%ebp
  100733:	57                   	push   %edi
  100734:	56                   	push   %esi
  100735:	53                   	push   %ebx
  100736:	81 ec 90 00 00 00    	sub    $0x90,%esp
  10073c:	8d 45 0c             	lea    0xc(%ebp),%eax
  10073f:	50                   	push   %eax
  100740:	ff 75 08             	pushl  0x8(%ebp)
  100743:	8d 9d 68 ff ff ff    	lea    -0x98(%ebp),%ebx
  100749:	53                   	push   %ebx
  10074a:	e8 a1 fe ff ff       	call   1005f0 <vsprintf>
  10074f:	89 c6                	mov    %eax,%esi
  100751:	83 c4 10             	add    $0x10,%esp
  100754:	85 c0                	test   %eax,%eax
  100756:	7e 18                	jle    100770 <printf+0x40>
  100758:	8d 3c 03             	lea    (%ebx,%eax,1),%edi
  10075b:	90                   	nop
  10075c:	83 ec 0c             	sub    $0xc,%esp
  10075f:	0f be 03             	movsbl (%ebx),%eax
  100762:	50                   	push   %eax
  100763:	e8 b4 fd ff ff       	call   10051c <putch>
  100768:	43                   	inc    %ebx
  100769:	83 c4 10             	add    $0x10,%esp
  10076c:	39 fb                	cmp    %edi,%ebx
  10076e:	75 ec                	jne    10075c <printf+0x2c>
  100770:	89 f0                	mov    %esi,%eax
  100772:	8d 65 f4             	lea    -0xc(%ebp),%esp
  100775:	5b                   	pop    %ebx
  100776:	5e                   	pop    %esi
  100777:	5f                   	pop    %edi
  100778:	5d                   	pop    %ebp
  100779:	c3                   	ret    
  10077a:	66 90                	xchg   %ax,%ax

0010077c <sprintf>:
  10077c:	55                   	push   %ebp
  10077d:	89 e5                	mov    %esp,%ebp
  10077f:	53                   	push   %ebx
  100780:	83 ec 08             	sub    $0x8,%esp
  100783:	8b 5d 08             	mov    0x8(%ebp),%ebx
  100786:	8d 45 10             	lea    0x10(%ebp),%eax
  100789:	50                   	push   %eax
  10078a:	ff 75 0c             	pushl  0xc(%ebp)
  10078d:	53                   	push   %ebx
  10078e:	e8 5d fe ff ff       	call   1005f0 <vsprintf>
  100793:	c6 04 03 00          	movb   $0x0,(%ebx,%eax,1)
  100797:	8b 5d fc             	mov    -0x4(%ebp),%ebx
  10079a:	c9                   	leave  
  10079b:	c3                   	ret    

0010079c <strlen>:
  10079c:	55                   	push   %ebp
  10079d:	89 e5                	mov    %esp,%ebp
  10079f:	8b 55 08             	mov    0x8(%ebp),%edx
  1007a2:	80 3a 00             	cmpb   $0x0,(%edx)
  1007a5:	74 11                	je     1007b8 <strlen+0x1c>
  1007a7:	89 d0                	mov    %edx,%eax
  1007a9:	8d 76 00             	lea    0x0(%esi),%esi
  1007ac:	40                   	inc    %eax
  1007ad:	80 38 00             	cmpb   $0x0,(%eax)
  1007b0:	75 fa                	jne    1007ac <strlen+0x10>
  1007b2:	29 d0                	sub    %edx,%eax
  1007b4:	5d                   	pop    %ebp
  1007b5:	c3                   	ret    
  1007b6:	66 90                	xchg   %ax,%ax
  1007b8:	31 c0                	xor    %eax,%eax
  1007ba:	5d                   	pop    %ebp
  1007bb:	c3                   	ret    

001007bc <strcat>:
  1007bc:	55                   	push   %ebp
  1007bd:	89 e5                	mov    %esp,%ebp
  1007bf:	57                   	push   %edi
  1007c0:	56                   	push   %esi
  1007c1:	53                   	push   %ebx
  1007c2:	8b 7d 08             	mov    0x8(%ebp),%edi
  1007c5:	8b 75 0c             	mov    0xc(%ebp),%esi
  1007c8:	8a 17                	mov    (%edi),%dl
  1007ca:	8a 1e                	mov    (%esi),%bl
  1007cc:	89 f8                	mov    %edi,%eax
  1007ce:	66 90                	xchg   %ax,%ax
  1007d0:	84 d2                	test   %dl,%dl
  1007d2:	74 23                	je     1007f7 <strcat+0x3b>
  1007d4:	8d 48 01             	lea    0x1(%eax),%ecx
  1007d7:	8a 50 01             	mov    0x1(%eax),%dl
  1007da:	84 d2                	test   %dl,%dl
  1007dc:	74 06                	je     1007e4 <strcat+0x28>
  1007de:	89 c8                	mov    %ecx,%eax
  1007e0:	eb ee                	jmp    1007d0 <strcat+0x14>
  1007e2:	66 90                	xchg   %ax,%ax
  1007e4:	89 c8                	mov    %ecx,%eax
  1007e6:	84 db                	test   %bl,%bl
  1007e8:	74 f4                	je     1007de <strcat+0x22>
  1007ea:	66 90                	xchg   %ax,%ax
  1007ec:	88 18                	mov    %bl,(%eax)
  1007ee:	c6 40 01 00          	movb   $0x0,0x1(%eax)
  1007f2:	8a 5e 01             	mov    0x1(%esi),%bl
  1007f5:	46                   	inc    %esi
  1007f6:	40                   	inc    %eax
  1007f7:	84 db                	test   %bl,%bl
  1007f9:	75 f1                	jne    1007ec <strcat+0x30>
  1007fb:	89 f8                	mov    %edi,%eax
  1007fd:	5b                   	pop    %ebx
  1007fe:	5e                   	pop    %esi
  1007ff:	5f                   	pop    %edi
  100800:	5d                   	pop    %ebp
  100801:	c3                   	ret    
  100802:	66 90                	xchg   %ax,%ax

00100804 <strcmp>:
  100804:	55                   	push   %ebp
  100805:	89 e5                	mov    %esp,%ebp
  100807:	56                   	push   %esi
  100808:	53                   	push   %ebx
  100809:	8b 5d 08             	mov    0x8(%ebp),%ebx
  10080c:	8b 75 0c             	mov    0xc(%ebp),%esi
  10080f:	8a 0b                	mov    (%ebx),%cl
  100811:	84 c9                	test   %cl,%cl
  100813:	75 12                	jne    100827 <strcmp+0x23>
  100815:	eb 17                	jmp    10082e <strcmp+0x2a>
  100817:	90                   	nop
  100818:	0f be d1             	movsbl %cl,%edx
  10081b:	29 c2                	sub    %eax,%edx
  10081d:	75 11                	jne    100830 <strcmp+0x2c>
  10081f:	43                   	inc    %ebx
  100820:	46                   	inc    %esi
  100821:	8a 0b                	mov    (%ebx),%cl
  100823:	84 c9                	test   %cl,%cl
  100825:	74 09                	je     100830 <strcmp+0x2c>
  100827:	0f be 06             	movsbl (%esi),%eax
  10082a:	84 c0                	test   %al,%al
  10082c:	75 ea                	jne    100818 <strcmp+0x14>
  10082e:	31 d2                	xor    %edx,%edx
  100830:	89 d0                	mov    %edx,%eax
  100832:	5b                   	pop    %ebx
  100833:	5e                   	pop    %esi
  100834:	5d                   	pop    %ebp
  100835:	c3                   	ret    
  100836:	66 90                	xchg   %ax,%ax

00100838 <memset>:
  100838:	55                   	push   %ebp
  100839:	89 e5                	mov    %esp,%ebp
  10083b:	53                   	push   %ebx
  10083c:	8b 5d 08             	mov    0x8(%ebp),%ebx
  10083f:	8b 55 10             	mov    0x10(%ebp),%edx
  100842:	85 d2                	test   %edx,%edx
  100844:	74 12                	je     100858 <memset+0x20>
  100846:	8a 4d 0c             	mov    0xc(%ebp),%cl
  100849:	01 da                	add    %ebx,%edx
  10084b:	89 d8                	mov    %ebx,%eax
  10084d:	8d 76 00             	lea    0x0(%esi),%esi
  100850:	40                   	inc    %eax
  100851:	88 48 ff             	mov    %cl,-0x1(%eax)
  100854:	39 d0                	cmp    %edx,%eax
  100856:	75 f8                	jne    100850 <memset+0x18>
  100858:	89 d8                	mov    %ebx,%eax
  10085a:	8b 5d fc             	mov    -0x4(%ebp),%ebx
  10085d:	c9                   	leave  
  10085e:	c3                   	ret    
  10085f:	90                   	nop

00100860 <memmove>:
  100860:	55                   	push   %ebp
  100861:	89 e5                	mov    %esp,%ebp
  100863:	57                   	push   %edi
  100864:	56                   	push   %esi
  100865:	8b 45 08             	mov    0x8(%ebp),%eax
  100868:	8b 75 0c             	mov    0xc(%ebp),%esi
  10086b:	8b 55 10             	mov    0x10(%ebp),%edx
  10086e:	39 f0                	cmp    %esi,%eax
  100870:	76 07                	jbe    100879 <memmove+0x19>
  100872:	8d 3c 16             	lea    (%esi,%edx,1),%edi
  100875:	39 f8                	cmp    %edi,%eax
  100877:	76 17                	jbe    100890 <memmove+0x30>
  100879:	85 d2                	test   %edx,%edx
  10087b:	74 0c                	je     100889 <memmove+0x29>
  10087d:	01 c2                	add    %eax,%edx
  10087f:	89 c7                	mov    %eax,%edi
  100881:	8d 76 00             	lea    0x0(%esi),%esi
  100884:	a4                   	movsb  %ds:(%esi),%es:(%edi)
  100885:	39 fa                	cmp    %edi,%edx
  100887:	75 fb                	jne    100884 <memmove+0x24>
  100889:	5e                   	pop    %esi
  10088a:	5f                   	pop    %edi
  10088b:	5d                   	pop    %ebp
  10088c:	c3                   	ret    
  10088d:	8d 76 00             	lea    0x0(%esi),%esi
  100890:	8d 4a ff             	lea    -0x1(%edx),%ecx
  100893:	8d 3c 08             	lea    (%eax,%ecx,1),%edi
  100896:	01 ce                	add    %ecx,%esi
  100898:	85 d2                	test   %edx,%edx
  10089a:	74 ed                	je     100889 <memmove+0x29>
  10089c:	01 fa                	add    %edi,%edx
  10089e:	66 90                	xchg   %ax,%ax
  1008a0:	a4                   	movsb  %ds:(%esi),%es:(%edi)
  1008a1:	39 d7                	cmp    %edx,%edi
  1008a3:	75 fb                	jne    1008a0 <memmove+0x40>
  1008a5:	5e                   	pop    %esi
  1008a6:	5f                   	pop    %edi
  1008a7:	5d                   	pop    %ebp
  1008a8:	c3                   	ret    
  1008a9:	66 90                	xchg   %ax,%ax
  1008ab:	90                   	nop

001008ac <memcpy>:
  1008ac:	55                   	push   %ebp
  1008ad:	89 e5                	mov    %esp,%ebp
  1008af:	57                   	push   %edi
  1008b0:	56                   	push   %esi
  1008b1:	8b 55 08             	mov    0x8(%ebp),%edx
  1008b4:	8b 75 0c             	mov    0xc(%ebp),%esi
  1008b7:	8b 45 10             	mov    0x10(%ebp),%eax
  1008ba:	85 c0                	test   %eax,%eax
  1008bc:	74 0b                	je     1008c9 <memcpy+0x1d>
  1008be:	01 d0                	add    %edx,%eax
  1008c0:	89 d7                	mov    %edx,%edi
  1008c2:	66 90                	xchg   %ax,%ax
  1008c4:	a4                   	movsb  %ds:(%esi),%es:(%edi)
  1008c5:	39 c7                	cmp    %eax,%edi
  1008c7:	75 fb                	jne    1008c4 <memcpy+0x18>
  1008c9:	89 d0                	mov    %edx,%eax
  1008cb:	5e                   	pop    %esi
  1008cc:	5f                   	pop    %edi
  1008cd:	5d                   	pop    %ebp
  1008ce:	c3                   	ret    
  1008cf:	90                   	nop

001008d0 <memcmp>:
  1008d0:	55                   	push   %ebp
  1008d1:	89 e5                	mov    %esp,%ebp
  1008d3:	56                   	push   %esi
  1008d4:	53                   	push   %ebx
  1008d5:	8b 55 08             	mov    0x8(%ebp),%edx
  1008d8:	8b 4d 0c             	mov    0xc(%ebp),%ecx
  1008db:	8b 75 10             	mov    0x10(%ebp),%esi
  1008de:	85 f6                	test   %esi,%esi
  1008e0:	74 1a                	je     1008fc <memcmp+0x2c>
  1008e2:	01 d6                	add    %edx,%esi
  1008e4:	eb 08                	jmp    1008ee <memcmp+0x1e>
  1008e6:	66 90                	xchg   %ax,%ax
  1008e8:	42                   	inc    %edx
  1008e9:	41                   	inc    %ecx
  1008ea:	39 f2                	cmp    %esi,%edx
  1008ec:	74 0a                	je     1008f8 <memcmp+0x28>
  1008ee:	0f be 02             	movsbl (%edx),%eax
  1008f1:	0f be 19             	movsbl (%ecx),%ebx
  1008f4:	29 d8                	sub    %ebx,%eax
  1008f6:	74 f0                	je     1008e8 <memcmp+0x18>
  1008f8:	5b                   	pop    %ebx
  1008f9:	5e                   	pop    %esi
  1008fa:	5d                   	pop    %ebp
  1008fb:	c3                   	ret    
  1008fc:	31 c0                	xor    %eax,%eax
  1008fe:	eb f8                	jmp    1008f8 <memcmp+0x28>
