
/home/liaozetao/Documents/ics/am-kernels/benchmarks/microbench/build/microbench-x86-nemu.elf:     file format elf32-i386


Disassembly of section .text:

00100000 <_start>:
  100000:	bd 00 00 00 00       	mov    $0x0,%ebp
  100005:	bc 00 e0 10 00       	mov    $0x10e000,%esp
  10000a:	e8 3d 40 00 00       	call   10404c <_trm_init>
  10000f:	90                   	nop

00100010 <bench_bf_prepare>:
  100010:	55                   	push   %ebp
  100011:	89 e5                	mov    %esp,%ebp
  100013:	56                   	push   %esi
  100014:	53                   	push   %ebx
  100015:	a1 fc 57 10 00       	mov    0x1057fc,%eax
  10001a:	8b 00                	mov    (%eax),%eax
  10001c:	a3 e0 57 10 00       	mov    %eax,0x1057e0
  100021:	c7 05 d4 57 10 00 00 	movl   $0x0,0x1057d4
  100028:	00 00 00 
  10002b:	83 ec 0c             	sub    $0xc,%esp
  10002e:	68 00 40 00 00       	push   $0x4000
  100033:	e8 50 0f 00 00       	call   100f88 <bench_alloc>
  100038:	a3 dc 57 10 00       	mov    %eax,0x1057dc
  10003d:	c7 04 24 00 04 00 00 	movl   $0x400,(%esp)
  100044:	e8 3f 0f 00 00       	call   100f88 <bench_alloc>
  100049:	a3 d8 57 10 00       	mov    %eax,0x1057d8
  10004e:	c7 04 24 00 20 00 00 	movl   $0x2000,(%esp)
  100055:	e8 2e 0f 00 00       	call   100f88 <bench_alloc>
  10005a:	a3 c8 57 10 00       	mov    %eax,0x1057c8
  10005f:	c7 05 d0 57 10 00 a0 	movl   $0x1048a0,0x1057d0
  100066:	48 10 00 
  100069:	a1 e0 57 10 00       	mov    0x1057e0,%eax
  10006e:	40                   	inc    %eax
  10006f:	89 04 24             	mov    %eax,(%esp)
  100072:	e8 11 0f 00 00       	call   100f88 <bench_alloc>
  100077:	a3 cc 57 10 00       	mov    %eax,0x1057cc
  10007c:	c7 04 24 00 10 00 00 	movl   $0x1000,(%esp)
  100083:	e8 00 0f 00 00       	call   100f88 <bench_alloc>
  100088:	a3 c4 57 10 00       	mov    %eax,0x1057c4
  10008d:	c7 05 c0 57 10 00 00 	movl   $0x0,0x1057c0
  100094:	00 00 00 
  100097:	c7 04 24 01 00 00 00 	movl   $0x1,(%esp)
  10009e:	e8 69 0f 00 00       	call   10100c <bench_srand>
  1000a3:	83 c4 10             	add    $0x10,%esp
  1000a6:	a1 e0 57 10 00       	mov    0x1057e0,%eax
  1000ab:	85 c0                	test   %eax,%eax
  1000ad:	7e 29                	jle    1000d8 <bench_bf_prepare+0xc8>
  1000af:	31 db                	xor    %ebx,%ebx
  1000b1:	be 3e 00 00 00       	mov    $0x3e,%esi
  1000b6:	66 90                	xchg   %ax,%ax
  1000b8:	e8 63 0f 00 00       	call   101020 <bench_rand>
  1000bd:	31 d2                	xor    %edx,%edx
  1000bf:	f7 f6                	div    %esi
  1000c1:	8a 92 54 49 10 00    	mov    0x104954(%edx),%dl
  1000c7:	a1 cc 57 10 00       	mov    0x1057cc,%eax
  1000cc:	88 14 18             	mov    %dl,(%eax,%ebx,1)
  1000cf:	43                   	inc    %ebx
  1000d0:	39 1d e0 57 10 00    	cmp    %ebx,0x1057e0
  1000d6:	7f e0                	jg     1000b8 <bench_bf_prepare+0xa8>
  1000d8:	8d 65 f8             	lea    -0x8(%ebp),%esp
  1000db:	5b                   	pop    %ebx
  1000dc:	5e                   	pop    %esi
  1000dd:	5d                   	pop    %ebp
  1000de:	c3                   	ret    
  1000df:	90                   	nop

001000e0 <bench_bf_run>:
  1000e0:	55                   	push   %ebp
  1000e1:	89 e5                	mov    %esp,%ebp
  1000e3:	57                   	push   %edi
  1000e4:	56                   	push   %esi
  1000e5:	53                   	push   %ebx
  1000e6:	83 ec 14             	sub    $0x14,%esp
  1000e9:	8b 15 d0 57 10 00    	mov    0x1057d0,%edx
  1000ef:	8a 02                	mov    (%edx),%al
  1000f1:	8b 3d dc 57 10 00    	mov    0x1057dc,%edi
  1000f7:	8b 35 d4 57 10 00    	mov    0x1057d4,%esi
  1000fd:	89 75 f0             	mov    %esi,-0x10(%ebp)
  100100:	84 c0                	test   %al,%al
  100102:	0f 84 bc 02 00 00    	je     1003c4 <bench_bf_run+0x2e4>
  100108:	8b 35 d8 57 10 00    	mov    0x1057d8,%esi
  10010e:	89 75 e8             	mov    %esi,-0x18(%ebp)
  100111:	42                   	inc    %edx
  100112:	31 db                	xor    %ebx,%ebx
  100114:	c6 45 ec 00          	movb   $0x0,-0x14(%ebp)
  100118:	31 c9                	xor    %ecx,%ecx
  10011a:	66 90                	xchg   %ax,%ax
  10011c:	8d 72 ff             	lea    -0x1(%edx),%esi
  10011f:	83 e8 2b             	sub    $0x2b,%eax
  100122:	3c 32                	cmp    $0x32,%al
  100124:	77 0a                	ja     100130 <bench_bf_run+0x50>
  100126:	0f b6 c0             	movzbl %al,%eax
  100129:	ff 24 85 94 49 10 00 	jmp    *0x104994(,%eax,4)
  100130:	8a 02                	mov    (%edx),%al
  100132:	84 c0                	test   %al,%al
  100134:	0f 84 e6 00 00 00    	je     100220 <bench_bf_run+0x140>
  10013a:	66 90                	xchg   %ax,%ax
  10013c:	42                   	inc    %edx
  10013d:	b3 01                	mov    $0x1,%bl
  10013f:	eb db                	jmp    10011c <bench_bf_run+0x3c>
  100141:	8d 76 00             	lea    0x0(%esi),%esi
  100144:	8b 45 f0             	mov    -0x10(%ebp),%eax
  100147:	85 c0                	test   %eax,%eax
  100149:	0f 84 40 02 00 00    	je     10038f <bench_bf_run+0x2af>
  10014f:	48                   	dec    %eax
  100150:	89 45 f0             	mov    %eax,-0x10(%ebp)
  100153:	8b 75 e8             	mov    -0x18(%ebp),%esi
  100156:	0f b7 04 46          	movzwl (%esi,%eax,2),%eax
  10015a:	0f b7 d9             	movzwl %cx,%ebx
  10015d:	8d 1c 9f             	lea    (%edi,%ebx,4),%ebx
  100160:	66 c7 03 08 00       	movw   $0x8,(%ebx)
  100165:	66 89 43 02          	mov    %ax,0x2(%ebx)
  100169:	66 89 4c 87 02       	mov    %cx,0x2(%edi,%eax,4)
  10016e:	c6 45 ec 01          	movb   $0x1,-0x14(%ebp)
  100172:	66 90                	xchg   %ax,%ax
  100174:	41                   	inc    %ecx
  100175:	8a 02                	mov    (%edx),%al
  100177:	84 c0                	test   %al,%al
  100179:	0f 84 a1 00 00 00    	je     100220 <bench_bf_run+0x140>
  10017f:	66 81 f9 00 10       	cmp    $0x1000,%cx
  100184:	75 b6                	jne    10013c <bench_bf_run+0x5c>
  100186:	80 7d ec 00          	cmpb   $0x0,-0x14(%ebp)
  10018a:	74 08                	je     100194 <bench_bf_run+0xb4>
  10018c:	8b 45 f0             	mov    -0x10(%ebp),%eax
  10018f:	a3 d4 57 10 00       	mov    %eax,0x1057d4
  100194:	89 15 d0 57 10 00    	mov    %edx,0x1057d0
  10019a:	0f b7 07             	movzwl (%edi),%eax
  10019d:	66 85 c0             	test   %ax,%ax
  1001a0:	0f 84 5e 01 00 00    	je     100304 <bench_bf_run+0x224>
  1001a6:	8b 35 c8 57 10 00    	mov    0x1057c8,%esi
  1001ac:	8b 1d cc 57 10 00    	mov    0x1057cc,%ebx
  1001b2:	89 5d e8             	mov    %ebx,-0x18(%ebp)
  1001b5:	8b 1d c4 57 10 00    	mov    0x1057c4,%ebx
  1001bb:	89 5d e0             	mov    %ebx,-0x20(%ebp)
  1001be:	8b 1d c0 57 10 00    	mov    0x1057c0,%ebx
  1001c4:	89 5d ec             	mov    %ebx,-0x14(%ebp)
  1001c7:	89 f9                	mov    %edi,%ecx
  1001c9:	c6 45 e6 00          	movb   $0x0,-0x1a(%ebp)
  1001cd:	c6 45 e7 00          	movb   $0x0,-0x19(%ebp)
  1001d1:	31 d2                	xor    %edx,%edx
  1001d3:	31 db                	xor    %ebx,%ebx
  1001d5:	89 75 f0             	mov    %esi,-0x10(%ebp)
  1001d8:	66 83 f8 08          	cmp    $0x8,%ax
  1001dc:	0f 87 06 01 00 00    	ja     1002e8 <bench_bf_run+0x208>
  1001e2:	ff 24 85 60 4a 10 00 	jmp    *0x104a60(,%eax,4)
  1001e9:	8d 76 00             	lea    0x0(%esi),%esi
  1001ec:	0f b7 c1             	movzwl %cx,%eax
  1001ef:	66 c7 04 87 07 00    	movw   $0x7,(%edi,%eax,4)
  1001f5:	81 7d f0 00 02 00 00 	cmpl   $0x200,-0x10(%ebp)
  1001fc:	0f 84 b0 01 00 00    	je     1003b2 <bench_bf_run+0x2d2>
  100202:	8b 75 e8             	mov    -0x18(%ebp),%esi
  100205:	8b 45 f0             	mov    -0x10(%ebp),%eax
  100208:	66 89 0c 46          	mov    %cx,(%esi,%eax,2)
  10020c:	40                   	inc    %eax
  10020d:	89 45 f0             	mov    %eax,-0x10(%ebp)
  100210:	c6 45 ec 01          	movb   $0x1,-0x14(%ebp)
  100214:	41                   	inc    %ecx
  100215:	8a 02                	mov    (%edx),%al
  100217:	84 c0                	test   %al,%al
  100219:	0f 85 60 ff ff ff    	jne    10017f <bench_bf_run+0x9f>
  10021f:	90                   	nop
  100220:	80 7d ec 00          	cmpb   $0x0,-0x14(%ebp)
  100224:	74 08                	je     10022e <bench_bf_run+0x14e>
  100226:	8b 45 f0             	mov    -0x10(%ebp),%eax
  100229:	a3 d4 57 10 00       	mov    %eax,0x1057d4
  10022e:	89 15 d0 57 10 00    	mov    %edx,0x1057d0
  100234:	a1 d4 57 10 00       	mov    0x1057d4,%eax
  100239:	85 c0                	test   %eax,%eax
  10023b:	0f 85 59 ff ff ff    	jne    10019a <bench_bf_run+0xba>
  100241:	66 81 f9 00 10       	cmp    $0x1000,%cx
  100246:	0f 84 4e ff ff ff    	je     10019a <bench_bf_run+0xba>
  10024c:	0f b7 c9             	movzwl %cx,%ecx
  10024f:	8d 04 8f             	lea    (%edi,%ecx,4),%eax
  100252:	66 c7 00 00 00       	movw   $0x0,(%eax)
  100257:	0f b7 07             	movzwl (%edi),%eax
  10025a:	66 85 c0             	test   %ax,%ax
  10025d:	0f 85 43 ff ff ff    	jne    1001a6 <bench_bf_run+0xc6>
  100263:	e9 9c 00 00 00       	jmp    100304 <bench_bf_run+0x224>
  100268:	0f b7 c1             	movzwl %cx,%eax
  10026b:	66 c7 04 87 01 00    	movw   $0x1,(%edi,%eax,4)
  100271:	e9 fe fe ff ff       	jmp    100174 <bench_bf_run+0x94>
  100276:	66 90                	xchg   %ax,%ax
  100278:	0f b7 c1             	movzwl %cx,%eax
  10027b:	66 c7 04 87 02 00    	movw   $0x2,(%edi,%eax,4)
  100281:	e9 ee fe ff ff       	jmp    100174 <bench_bf_run+0x94>
  100286:	66 90                	xchg   %ax,%ax
  100288:	0f b7 c1             	movzwl %cx,%eax
  10028b:	66 c7 04 87 05 00    	movw   $0x5,(%edi,%eax,4)
  100291:	e9 de fe ff ff       	jmp    100174 <bench_bf_run+0x94>
  100296:	66 90                	xchg   %ax,%ax
  100298:	0f b7 c1             	movzwl %cx,%eax
  10029b:	66 c7 04 87 04 00    	movw   $0x4,(%edi,%eax,4)
  1002a1:	e9 ce fe ff ff       	jmp    100174 <bench_bf_run+0x94>
  1002a6:	66 90                	xchg   %ax,%ax
  1002a8:	0f b7 c1             	movzwl %cx,%eax
  1002ab:	66 c7 04 87 06 00    	movw   $0x6,(%edi,%eax,4)
  1002b1:	e9 be fe ff ff       	jmp    100174 <bench_bf_run+0x94>
  1002b6:	66 90                	xchg   %ax,%ax
  1002b8:	0f b7 c1             	movzwl %cx,%eax
  1002bb:	66 c7 04 87 03 00    	movw   $0x3,(%edi,%eax,4)
  1002c1:	e9 ae fe ff ff       	jmp    100174 <bench_bf_run+0x94>
  1002c6:	66 90                	xchg   %ax,%ax
  1002c8:	8b 45 f0             	mov    -0x10(%ebp),%eax
  1002cb:	66 83 3c 58 00       	cmpw   $0x0,(%eax,%ebx,2)
  1002d0:	74 06                	je     1002d8 <bench_bf_run+0x1f8>
  1002d2:	0f b7 51 02          	movzwl 0x2(%ecx),%edx
  1002d6:	66 90                	xchg   %ax,%ax
  1002d8:	42                   	inc    %edx
  1002d9:	8d 0c 97             	lea    (%edi,%edx,4),%ecx
  1002dc:	0f b7 01             	movzwl (%ecx),%eax
  1002df:	66 85 c0             	test   %ax,%ax
  1002e2:	0f 85 f0 fe ff ff    	jne    1001d8 <bench_bf_run+0xf8>
  1002e8:	80 7d e7 00          	cmpb   $0x0,-0x19(%ebp)
  1002ec:	74 08                	je     1002f6 <bench_bf_run+0x216>
  1002ee:	8b 45 ec             	mov    -0x14(%ebp),%eax
  1002f1:	a3 c0 57 10 00       	mov    %eax,0x1057c0
  1002f6:	80 7d e6 00          	cmpb   $0x0,-0x1a(%ebp)
  1002fa:	74 08                	je     100304 <bench_bf_run+0x224>
  1002fc:	8b 45 e8             	mov    -0x18(%ebp),%eax
  1002ff:	a3 cc 57 10 00       	mov    %eax,0x1057cc
  100304:	83 c4 14             	add    $0x14,%esp
  100307:	5b                   	pop    %ebx
  100308:	5e                   	pop    %esi
  100309:	5f                   	pop    %edi
  10030a:	5d                   	pop    %ebp
  10030b:	c3                   	ret    
  10030c:	8b 45 f0             	mov    -0x10(%ebp),%eax
  10030f:	66 83 3c 58 00       	cmpw   $0x0,(%eax,%ebx,2)
  100314:	75 c2                	jne    1002d8 <bench_bf_run+0x1f8>
  100316:	eb ba                	jmp    1002d2 <bench_bf_run+0x1f2>
  100318:	8b 4d e8             	mov    -0x18(%ebp),%ecx
  10031b:	66 0f be 01          	movsbw (%ecx),%ax
  10031f:	8b 75 f0             	mov    -0x10(%ebp),%esi
  100322:	66 89 04 5e          	mov    %ax,(%esi,%ebx,2)
  100326:	8d 41 01             	lea    0x1(%ecx),%eax
  100329:	89 45 e8             	mov    %eax,-0x18(%ebp)
  10032c:	c6 45 e6 01          	movb   $0x1,-0x1a(%ebp)
  100330:	eb a6                	jmp    1002d8 <bench_bf_run+0x1f8>
  100332:	66 90                	xchg   %ax,%ax
  100334:	8b 75 e0             	mov    -0x20(%ebp),%esi
  100337:	8b 4d ec             	mov    -0x14(%ebp),%ecx
  10033a:	8b 45 f0             	mov    -0x10(%ebp),%eax
  10033d:	8a 04 58             	mov    (%eax,%ebx,2),%al
  100340:	88 04 0e             	mov    %al,(%esi,%ecx,1)
  100343:	8d 41 01             	lea    0x1(%ecx),%eax
  100346:	89 45 ec             	mov    %eax,-0x14(%ebp)
  100349:	c6 45 e7 01          	movb   $0x1,-0x19(%ebp)
  10034d:	eb 89                	jmp    1002d8 <bench_bf_run+0x1f8>
  10034f:	90                   	nop
  100350:	8b 45 f0             	mov    -0x10(%ebp),%eax
  100353:	66 ff 0c 58          	decw   (%eax,%ebx,2)
  100357:	e9 7c ff ff ff       	jmp    1002d8 <bench_bf_run+0x1f8>
  10035c:	8b 45 f0             	mov    -0x10(%ebp),%eax
  10035f:	66 ff 04 58          	incw   (%eax,%ebx,2)
  100363:	e9 70 ff ff ff       	jmp    1002d8 <bench_bf_run+0x1f8>
  100368:	4b                   	dec    %ebx
  100369:	42                   	inc    %edx
  10036a:	8d 0c 97             	lea    (%edi,%edx,4),%ecx
  10036d:	0f b7 01             	movzwl (%ecx),%eax
  100370:	66 85 c0             	test   %ax,%ax
  100373:	0f 84 6f ff ff ff    	je     1002e8 <bench_bf_run+0x208>
  100379:	81 fb ff 0f 00 00    	cmp    $0xfff,%ebx
  10037f:	0f 86 53 fe ff ff    	jbe    1001d8 <bench_bf_run+0xf8>
  100385:	e9 5e ff ff ff       	jmp    1002e8 <bench_bf_run+0x208>
  10038a:	66 90                	xchg   %ax,%ax
  10038c:	43                   	inc    %ebx
  10038d:	eb da                	jmp    100369 <bench_bf_run+0x289>
  10038f:	80 7d ec 00          	cmpb   $0x0,-0x14(%ebp)
  100393:	74 0a                	je     10039f <bench_bf_run+0x2bf>
  100395:	c7 05 d4 57 10 00 00 	movl   $0x0,0x1057d4
  10039c:	00 00 00 
  10039f:	84 db                	test   %bl,%bl
  1003a1:	0f 84 f3 fd ff ff    	je     10019a <bench_bf_run+0xba>
  1003a7:	89 35 d0 57 10 00    	mov    %esi,0x1057d0
  1003ad:	e9 e8 fd ff ff       	jmp    10019a <bench_bf_run+0xba>
  1003b2:	80 7d ec 00          	cmpb   $0x0,-0x14(%ebp)
  1003b6:	74 e7                	je     10039f <bench_bf_run+0x2bf>
  1003b8:	c7 05 d4 57 10 00 00 	movl   $0x200,0x1057d4
  1003bf:	02 00 00 
  1003c2:	eb db                	jmp    10039f <bench_bf_run+0x2bf>
  1003c4:	8b 55 f0             	mov    -0x10(%ebp),%edx
  1003c7:	85 d2                	test   %edx,%edx
  1003c9:	0f 85 cb fd ff ff    	jne    10019a <bench_bf_run+0xba>
  1003cf:	89 f8                	mov    %edi,%eax
  1003d1:	e9 7c fe ff ff       	jmp    100252 <bench_bf_run+0x172>
  1003d6:	66 90                	xchg   %ax,%ax

001003d8 <bench_bf_validate>:
  1003d8:	55                   	push   %ebp
  1003d9:	89 e5                	mov    %esp,%ebp
  1003db:	83 ec 10             	sub    $0x10,%esp
  1003de:	a1 c4 57 10 00       	mov    0x1057c4,%eax
  1003e3:	8b 15 c0 57 10 00    	mov    0x1057c0,%edx
  1003e9:	01 c2                	add    %eax,%edx
  1003eb:	52                   	push   %edx
  1003ec:	50                   	push   %eax
  1003ed:	e8 5e 0c 00 00       	call   101050 <checksum>
  1003f2:	83 c4 10             	add    $0x10,%esp
  1003f5:	8b 0d e0 57 10 00    	mov    0x1057e0,%ecx
  1003fb:	39 0d c0 57 10 00    	cmp    %ecx,0x1057c0
  100401:	74 05                	je     100408 <bench_bf_validate+0x30>
  100403:	31 c0                	xor    %eax,%eax
  100405:	c9                   	leave  
  100406:	c3                   	ret    
  100407:	90                   	nop
  100408:	8b 15 fc 57 10 00    	mov    0x1057fc,%edx
  10040e:	39 42 0c             	cmp    %eax,0xc(%edx)
  100411:	0f 94 c0             	sete   %al
  100414:	0f b6 c0             	movzbl %al,%eax
  100417:	c9                   	leave  
  100418:	c3                   	ret    
  100419:	66 90                	xchg   %ax,%ax
  10041b:	90                   	nop

0010041c <_ZL9radixPassPiS_S_ii>:
  10041c:	55                   	push   %ebp
  10041d:	89 e5                	mov    %esp,%ebp
  10041f:	57                   	push   %edi
  100420:	56                   	push   %esi
  100421:	53                   	push   %ebx
  100422:	83 ec 28             	sub    $0x28,%esp
  100425:	89 45 e4             	mov    %eax,-0x1c(%ebp)
  100428:	89 55 e0             	mov    %edx,-0x20(%ebp)
  10042b:	89 cf                	mov    %ecx,%edi
  10042d:	8b 75 0c             	mov    0xc(%ebp),%esi
  100430:	8d 1c b5 04 00 00 00 	lea    0x4(,%esi,4),%ebx
  100437:	53                   	push   %ebx
  100438:	e8 4b 0b 00 00       	call   100f88 <bench_alloc>
  10043d:	83 c4 10             	add    $0x10,%esp
  100440:	85 f6                	test   %esi,%esi
  100442:	0f 88 84 00 00 00    	js     1004cc <_ZL9radixPassPiS_S_ii+0xb0>
  100448:	89 c2                	mov    %eax,%edx
  10044a:	01 c3                	add    %eax,%ebx
  10044c:	c7 02 00 00 00 00    	movl   $0x0,(%edx)
  100452:	83 c2 04             	add    $0x4,%edx
  100455:	39 d3                	cmp    %edx,%ebx
  100457:	75 f3                	jne    10044c <_ZL9radixPassPiS_S_ii+0x30>
  100459:	8b 4d 08             	mov    0x8(%ebp),%ecx
  10045c:	85 c9                	test   %ecx,%ecx
  10045e:	7e 1f                	jle    10047f <_ZL9radixPassPiS_S_ii+0x63>
  100460:	8b 5d e4             	mov    -0x1c(%ebp),%ebx
  100463:	89 da                	mov    %ebx,%edx
  100465:	8b 4d 08             	mov    0x8(%ebp),%ecx
  100468:	8d 1c 8b             	lea    (%ebx,%ecx,4),%ebx
  10046b:	90                   	nop
  10046c:	8b 0a                	mov    (%edx),%ecx
  10046e:	8b 0c 8f             	mov    (%edi,%ecx,4),%ecx
  100471:	ff 04 88             	incl   (%eax,%ecx,4)
  100474:	83 c2 04             	add    $0x4,%edx
  100477:	39 d3                	cmp    %edx,%ebx
  100479:	75 f1                	jne    10046c <_ZL9radixPassPiS_S_ii+0x50>
  10047b:	85 f6                	test   %esi,%esi
  10047d:	78 19                	js     100498 <_ZL9radixPassPiS_S_ii+0x7c>
  10047f:	31 c9                	xor    %ecx,%ecx
  100481:	31 d2                	xor    %edx,%edx
  100483:	90                   	nop
  100484:	8b 1c 90             	mov    (%eax,%edx,4),%ebx
  100487:	89 0c 90             	mov    %ecx,(%eax,%edx,4)
  10048a:	01 d9                	add    %ebx,%ecx
  10048c:	42                   	inc    %edx
  10048d:	39 d6                	cmp    %edx,%esi
  10048f:	7d f3                	jge    100484 <_ZL9radixPassPiS_S_ii+0x68>
  100491:	8b 5d 08             	mov    0x8(%ebp),%ebx
  100494:	85 db                	test   %ebx,%ebx
  100496:	7e 2a                	jle    1004c2 <_ZL9radixPassPiS_S_ii+0xa6>
  100498:	31 d2                	xor    %edx,%edx
  10049a:	89 45 dc             	mov    %eax,-0x24(%ebp)
  10049d:	8d 76 00             	lea    0x0(%esi),%esi
  1004a0:	8b 45 e4             	mov    -0x1c(%ebp),%eax
  1004a3:	8b 0c 90             	mov    (%eax,%edx,4),%ecx
  1004a6:	8b 04 8f             	mov    (%edi,%ecx,4),%eax
  1004a9:	8b 75 dc             	mov    -0x24(%ebp),%esi
  1004ac:	8d 1c 86             	lea    (%esi,%eax,4),%ebx
  1004af:	8b 03                	mov    (%ebx),%eax
  1004b1:	8d 70 01             	lea    0x1(%eax),%esi
  1004b4:	89 33                	mov    %esi,(%ebx)
  1004b6:	8b 75 e0             	mov    -0x20(%ebp),%esi
  1004b9:	89 0c 86             	mov    %ecx,(%esi,%eax,4)
  1004bc:	42                   	inc    %edx
  1004bd:	39 55 08             	cmp    %edx,0x8(%ebp)
  1004c0:	7f de                	jg     1004a0 <_ZL9radixPassPiS_S_ii+0x84>
  1004c2:	8d 65 f4             	lea    -0xc(%ebp),%esp
  1004c5:	5b                   	pop    %ebx
  1004c6:	5e                   	pop    %esi
  1004c7:	5f                   	pop    %edi
  1004c8:	5d                   	pop    %ebp
  1004c9:	c3                   	ret    
  1004ca:	66 90                	xchg   %ax,%ax
  1004cc:	8b 55 08             	mov    0x8(%ebp),%edx
  1004cf:	85 d2                	test   %edx,%edx
  1004d1:	7f 8d                	jg     100460 <_ZL9radixPassPiS_S_ii+0x44>
  1004d3:	eb ed                	jmp    1004c2 <_ZL9radixPassPiS_S_ii+0xa6>
  1004d5:	66 90                	xchg   %ax,%ax
  1004d7:	90                   	nop

001004d8 <_Z11suffixArrayPiS_ii>:
  1004d8:	55                   	push   %ebp
  1004d9:	89 e5                	mov    %esp,%ebp
  1004db:	57                   	push   %edi
  1004dc:	56                   	push   %esi
  1004dd:	53                   	push   %ebx
  1004de:	83 ec 68             	sub    $0x68,%esp
  1004e1:	8b 7d 08             	mov    0x8(%ebp),%edi
  1004e4:	8b 45 10             	mov    0x10(%ebp),%eax
  1004e7:	8d 48 02             	lea    0x2(%eax),%ecx
  1004ea:	b8 56 55 55 55       	mov    $0x55555556,%eax
  1004ef:	f7 e9                	imul   %ecx
  1004f1:	c1 f9 1f             	sar    $0x1f,%ecx
  1004f4:	89 d6                	mov    %edx,%esi
  1004f6:	29 ce                	sub    %ecx,%esi
  1004f8:	b8 56 55 55 55       	mov    $0x55555556,%eax
  1004fd:	f7 6d 10             	imull  0x10(%ebp)
  100500:	8b 45 10             	mov    0x10(%ebp),%eax
  100503:	c1 f8 1f             	sar    $0x1f,%eax
  100506:	29 c2                	sub    %eax,%edx
  100508:	8d 1c 32             	lea    (%edx,%esi,1),%ebx
  10050b:	89 5d c8             	mov    %ebx,-0x38(%ebp)
  10050e:	89 75 e4             	mov    %esi,-0x1c(%ebp)
  100511:	8d 74 16 03          	lea    0x3(%esi,%edx,1),%esi
  100515:	c1 e6 02             	shl    $0x2,%esi
  100518:	56                   	push   %esi
  100519:	e8 6a 0a 00 00       	call   100f88 <bench_alloc>
  10051e:	89 45 dc             	mov    %eax,-0x24(%ebp)
  100521:	8d 1c 9d 08 00 00 00 	lea    0x8(,%ebx,4),%ebx
  100528:	c7 04 18 00 00 00 00 	movl   $0x0,(%eax,%ebx,1)
  10052f:	8d 53 fc             	lea    -0x4(%ebx),%edx
  100532:	c7 44 18 fc 00 00 00 	movl   $0x0,-0x4(%eax,%ebx,1)
  100539:	00 
  10053a:	89 55 d8             	mov    %edx,-0x28(%ebp)
  10053d:	8d 4b f8             	lea    -0x8(%ebx),%ecx
  100540:	c7 44 18 f8 00 00 00 	movl   $0x0,-0x8(%eax,%ebx,1)
  100547:	00 
  100548:	89 4d e0             	mov    %ecx,-0x20(%ebp)
  10054b:	89 34 24             	mov    %esi,(%esp)
  10054e:	e8 35 0a 00 00       	call   100f88 <bench_alloc>
  100553:	89 45 bc             	mov    %eax,-0x44(%ebp)
  100556:	c7 04 18 00 00 00 00 	movl   $0x0,(%eax,%ebx,1)
  10055d:	8b 55 d8             	mov    -0x28(%ebp),%edx
  100560:	c7 04 10 00 00 00 00 	movl   $0x0,(%eax,%edx,1)
  100567:	8b 4d e0             	mov    -0x20(%ebp),%ecx
  10056a:	c7 04 08 00 00 00 00 	movl   $0x0,(%eax,%ecx,1)
  100571:	8b 75 e4             	mov    -0x1c(%ebp),%esi
  100574:	8d 1c b5 00 00 00 00 	lea    0x0(,%esi,4),%ebx
  10057b:	89 5d a8             	mov    %ebx,-0x58(%ebp)
  10057e:	89 1c 24             	mov    %ebx,(%esp)
  100581:	e8 02 0a 00 00       	call   100f88 <bench_alloc>
  100586:	89 45 ac             	mov    %eax,-0x54(%ebp)
  100589:	89 1c 24             	mov    %ebx,(%esp)
  10058c:	e8 f7 09 00 00       	call   100f88 <bench_alloc>
  100591:	89 45 b8             	mov    %eax,-0x48(%ebp)
  100594:	8b 45 10             	mov    0x10(%ebp),%eax
  100597:	8d 48 01             	lea    0x1(%eax),%ecx
  10059a:	b8 56 55 55 55       	mov    $0x55555556,%eax
  10059f:	f7 e9                	imul   %ecx
  1005a1:	c1 f9 1f             	sar    $0x1f,%ecx
  1005a4:	89 d0                	mov    %edx,%eax
  1005a6:	29 c8                	sub    %ecx,%eax
  1005a8:	29 c6                	sub    %eax,%esi
  1005aa:	89 75 d4             	mov    %esi,-0x2c(%ebp)
  1005ad:	8b 5d 10             	mov    0x10(%ebp),%ebx
  1005b0:	01 f3                	add    %esi,%ebx
  1005b2:	83 c4 10             	add    $0x10,%esp
  1005b5:	85 db                	test   %ebx,%ebx
  1005b7:	7e 37                	jle    1005f0 <_Z11suffixArrayPiS_ii+0x118>
  1005b9:	31 d2                	xor    %edx,%edx
  1005bb:	31 c9                	xor    %ecx,%ecx
  1005bd:	42                   	inc    %edx
  1005be:	39 da                	cmp    %ebx,%edx
  1005c0:	74 2e                	je     1005f0 <_Z11suffixArrayPiS_ii+0x118>
  1005c2:	8d 04 92             	lea    (%edx,%edx,4),%eax
  1005c5:	8d 04 82             	lea    (%edx,%eax,4),%eax
  1005c8:	8d 04 82             	lea    (%edx,%eax,4),%eax
  1005cb:	89 c6                	mov    %eax,%esi
  1005cd:	c1 e6 08             	shl    $0x8,%esi
  1005d0:	01 f0                	add    %esi,%eax
  1005d2:	89 c6                	mov    %eax,%esi
  1005d4:	c1 e6 10             	shl    $0x10,%esi
  1005d7:	01 f0                	add    %esi,%eax
  1005d9:	01 c0                	add    %eax,%eax
  1005db:	01 d0                	add    %edx,%eax
  1005dd:	3d 55 55 55 55       	cmp    $0x55555555,%eax
  1005e2:	76 d9                	jbe    1005bd <_Z11suffixArrayPiS_ii+0xe5>
  1005e4:	8b 45 dc             	mov    -0x24(%ebp),%eax
  1005e7:	89 14 88             	mov    %edx,(%eax,%ecx,4)
  1005ea:	41                   	inc    %ecx
  1005eb:	42                   	inc    %edx
  1005ec:	39 da                	cmp    %ebx,%edx
  1005ee:	75 d2                	jne    1005c2 <_Z11suffixArrayPiS_ii+0xea>
  1005f0:	8d 4f 08             	lea    0x8(%edi),%ecx
  1005f3:	83 ec 08             	sub    $0x8,%esp
  1005f6:	ff 75 14             	pushl  0x14(%ebp)
  1005f9:	8b 5d c8             	mov    -0x38(%ebp),%ebx
  1005fc:	53                   	push   %ebx
  1005fd:	8b 75 bc             	mov    -0x44(%ebp),%esi
  100600:	89 f2                	mov    %esi,%edx
  100602:	8b 45 dc             	mov    -0x24(%ebp),%eax
  100605:	e8 12 fe ff ff       	call   10041c <_ZL9radixPassPiS_S_ii>
  10060a:	8d 4f 04             	lea    0x4(%edi),%ecx
  10060d:	5a                   	pop    %edx
  10060e:	58                   	pop    %eax
  10060f:	ff 75 14             	pushl  0x14(%ebp)
  100612:	53                   	push   %ebx
  100613:	8b 55 dc             	mov    -0x24(%ebp),%edx
  100616:	89 f0                	mov    %esi,%eax
  100618:	e8 ff fd ff ff       	call   10041c <_ZL9radixPassPiS_S_ii>
  10061d:	58                   	pop    %eax
  10061e:	5a                   	pop    %edx
  10061f:	ff 75 14             	pushl  0x14(%ebp)
  100622:	53                   	push   %ebx
  100623:	89 f9                	mov    %edi,%ecx
  100625:	89 f2                	mov    %esi,%edx
  100627:	8b 45 dc             	mov    -0x24(%ebp),%eax
  10062a:	e8 ed fd ff ff       	call   10041c <_ZL9radixPassPiS_S_ii>
  10062f:	83 c4 10             	add    $0x10,%esp
  100632:	85 db                	test   %ebx,%ebx
  100634:	0f 8e 04 01 00 00    	jle    10073e <_Z11suffixArrayPiS_ii+0x266>
  10063a:	8b 5d bc             	mov    -0x44(%ebp),%ebx
  10063d:	8b 45 c8             	mov    -0x38(%ebp),%eax
  100640:	8d 04 83             	lea    (%ebx,%eax,4),%eax
  100643:	89 45 b4             	mov    %eax,-0x4c(%ebp)
  100646:	c7 45 d8 ff ff ff ff 	movl   $0xffffffff,-0x28(%ebp)
  10064d:	c7 45 e0 ff ff ff ff 	movl   $0xffffffff,-0x20(%ebp)
  100654:	c7 45 cc ff ff ff ff 	movl   $0xffffffff,-0x34(%ebp)
  10065b:	31 c0                	xor    %eax,%eax
  10065d:	89 5d a4             	mov    %ebx,-0x5c(%ebp)
  100660:	89 45 d0             	mov    %eax,-0x30(%ebp)
  100663:	eb 3e                	jmp    1006a3 <_Z11suffixArrayPiS_ii+0x1cb>
  100665:	8d 76 00             	lea    0x0(%esi),%esi
  100668:	ff 45 d0             	incl   -0x30(%ebp)
  10066b:	89 55 cc             	mov    %edx,-0x34(%ebp)
  10066e:	b8 56 55 55 55       	mov    $0x55555556,%eax
  100673:	f7 e9                	imul   %ecx
  100675:	89 45 c0             	mov    %eax,-0x40(%ebp)
  100678:	89 55 c4             	mov    %edx,-0x3c(%ebp)
  10067b:	89 c8                	mov    %ecx,%eax
  10067d:	c1 f8 1f             	sar    $0x1f,%eax
  100680:	8b 55 c4             	mov    -0x3c(%ebp),%edx
  100683:	29 c2                	sub    %eax,%edx
  100685:	8d 04 12             	lea    (%edx,%edx,1),%eax
  100688:	01 d0                	add    %edx,%eax
  10068a:	29 c1                	sub    %eax,%ecx
  10068c:	49                   	dec    %ecx
  10068d:	74 51                	je     1006e0 <_Z11suffixArrayPiS_ii+0x208>
  10068f:	03 55 e4             	add    -0x1c(%ebp),%edx
  100692:	8b 45 dc             	mov    -0x24(%ebp),%eax
  100695:	8b 4d d0             	mov    -0x30(%ebp),%ecx
  100698:	89 0c 90             	mov    %ecx,(%eax,%edx,4)
  10069b:	83 c3 04             	add    $0x4,%ebx
  10069e:	39 5d b4             	cmp    %ebx,-0x4c(%ebp)
  1006a1:	74 4e                	je     1006f1 <_Z11suffixArrayPiS_ii+0x219>
  1006a3:	8b 0b                	mov    (%ebx),%ecx
  1006a5:	8d 04 8d 00 00 00 00 	lea    0x0(,%ecx,4),%eax
  1006ac:	8b 14 07             	mov    (%edi,%eax,1),%edx
  1006af:	8b 75 e0             	mov    -0x20(%ebp),%esi
  1006b2:	89 75 c0             	mov    %esi,-0x40(%ebp)
  1006b5:	8b 74 07 04          	mov    0x4(%edi,%eax,1),%esi
  1006b9:	89 75 e0             	mov    %esi,-0x20(%ebp)
  1006bc:	8b 75 d8             	mov    -0x28(%ebp),%esi
  1006bf:	89 75 b0             	mov    %esi,-0x50(%ebp)
  1006c2:	8b 44 07 08          	mov    0x8(%edi,%eax,1),%eax
  1006c6:	89 45 d8             	mov    %eax,-0x28(%ebp)
  1006c9:	3b 55 cc             	cmp    -0x34(%ebp),%edx
  1006cc:	75 9a                	jne    100668 <_Z11suffixArrayPiS_ii+0x190>
  1006ce:	8b 75 e0             	mov    -0x20(%ebp),%esi
  1006d1:	39 75 c0             	cmp    %esi,-0x40(%ebp)
  1006d4:	75 92                	jne    100668 <_Z11suffixArrayPiS_ii+0x190>
  1006d6:	39 45 b0             	cmp    %eax,-0x50(%ebp)
  1006d9:	75 8d                	jne    100668 <_Z11suffixArrayPiS_ii+0x190>
  1006db:	eb 91                	jmp    10066e <_Z11suffixArrayPiS_ii+0x196>
  1006dd:	8d 76 00             	lea    0x0(%esi),%esi
  1006e0:	8b 45 dc             	mov    -0x24(%ebp),%eax
  1006e3:	8b 75 d0             	mov    -0x30(%ebp),%esi
  1006e6:	89 34 90             	mov    %esi,(%eax,%edx,4)
  1006e9:	83 c3 04             	add    $0x4,%ebx
  1006ec:	39 5d b4             	cmp    %ebx,-0x4c(%ebp)
  1006ef:	75 b2                	jne    1006a3 <_Z11suffixArrayPiS_ii+0x1cb>
  1006f1:	8b 45 d0             	mov    -0x30(%ebp),%eax
  1006f4:	8b 75 a4             	mov    -0x5c(%ebp),%esi
  1006f7:	8b 4d c8             	mov    -0x38(%ebp),%ecx
  1006fa:	39 c8                	cmp    %ecx,%eax
  1006fc:	0f 8c 72 02 00 00    	jl     100974 <_Z11suffixArrayPiS_ii+0x49c>
  100702:	31 c0                	xor    %eax,%eax
  100704:	89 75 e0             	mov    %esi,-0x20(%ebp)
  100707:	8b 55 c8             	mov    -0x38(%ebp),%edx
  10070a:	8b 4d dc             	mov    -0x24(%ebp),%ecx
  10070d:	8b 5d bc             	mov    -0x44(%ebp),%ebx
  100710:	8b 34 81             	mov    (%ecx,%eax,4),%esi
  100713:	89 44 b3 fc          	mov    %eax,-0x4(%ebx,%esi,4)
  100717:	40                   	inc    %eax
  100718:	39 c2                	cmp    %eax,%edx
  10071a:	75 f4                	jne    100710 <_Z11suffixArrayPiS_ii+0x238>
  10071c:	8b 75 e0             	mov    -0x20(%ebp),%esi
  10071f:	31 c9                	xor    %ecx,%ecx
  100721:	8b 5d b4             	mov    -0x4c(%ebp),%ebx
  100724:	8b 06                	mov    (%esi),%eax
  100726:	3b 45 e4             	cmp    -0x1c(%ebp),%eax
  100729:	7d 0c                	jge    100737 <_Z11suffixArrayPiS_ii+0x25f>
  10072b:	8d 14 00             	lea    (%eax,%eax,1),%edx
  10072e:	01 d0                	add    %edx,%eax
  100730:	8b 55 ac             	mov    -0x54(%ebp),%edx
  100733:	89 04 8a             	mov    %eax,(%edx,%ecx,4)
  100736:	41                   	inc    %ecx
  100737:	83 c6 04             	add    $0x4,%esi
  10073a:	39 f3                	cmp    %esi,%ebx
  10073c:	75 e6                	jne    100724 <_Z11suffixArrayPiS_ii+0x24c>
  10073e:	83 ec 08             	sub    $0x8,%esp
  100741:	ff 75 14             	pushl  0x14(%ebp)
  100744:	ff 75 e4             	pushl  -0x1c(%ebp)
  100747:	89 f9                	mov    %edi,%ecx
  100749:	8b 55 b8             	mov    -0x48(%ebp),%edx
  10074c:	8b 45 ac             	mov    -0x54(%ebp),%eax
  10074f:	e8 c8 fc ff ff       	call   10041c <_ZL9radixPassPiS_S_ii>
  100754:	83 c4 10             	add    $0x10,%esp
  100757:	8b 45 10             	mov    0x10(%ebp),%eax
  10075a:	85 c0                	test   %eax,%eax
  10075c:	0f 8e 84 01 00 00    	jle    1008e6 <_Z11suffixArrayPiS_ii+0x40e>
  100762:	8b 45 bc             	mov    -0x44(%ebp),%eax
  100765:	8b 75 c8             	mov    -0x38(%ebp),%esi
  100768:	8d 04 b0             	lea    (%eax,%esi,4),%eax
  10076b:	89 45 ac             	mov    %eax,-0x54(%ebp)
  10076e:	8b 45 a8             	mov    -0x58(%ebp),%eax
  100771:	03 45 b8             	add    -0x48(%ebp),%eax
  100774:	89 45 a4             	mov    %eax,-0x5c(%ebp)
  100777:	31 db                	xor    %ebx,%ebx
  100779:	c7 45 d0 00 00 00 00 	movl   $0x0,-0x30(%ebp)
  100780:	89 5d d8             	mov    %ebx,-0x28(%ebp)
  100783:	89 7d 08             	mov    %edi,0x8(%ebp)
  100786:	eb 5e                	jmp    1007e6 <_Z11suffixArrayPiS_ii+0x30e>
  100788:	8d 14 09             	lea    (%ecx,%ecx,1),%edx
  10078b:	8d 7c 11 01          	lea    0x1(%ecx,%edx,1),%edi
  10078f:	89 7d c0             	mov    %edi,-0x40(%ebp)
  100792:	8b 5d dc             	mov    -0x24(%ebp),%ebx
  100795:	8b 04 83             	mov    (%ebx,%eax,4),%eax
  100798:	01 f1                	add    %esi,%ecx
  10079a:	8b 0c 8b             	mov    (%ebx,%ecx,4),%ecx
  10079d:	8b 55 08             	mov    0x8(%ebp),%edx
  1007a0:	8b 5d cc             	mov    -0x34(%ebp),%ebx
  1007a3:	39 1c ba             	cmp    %ebx,(%edx,%edi,4)
  1007a6:	0f 8c d0 00 00 00    	jl     10087c <_Z11suffixArrayPiS_ii+0x3a4>
  1007ac:	0f 84 3e 01 00 00    	je     1008f0 <_Z11suffixArrayPiS_ii+0x418>
  1007b2:	8b 4d d8             	mov    -0x28(%ebp),%ecx
  1007b5:	8d 04 8d 00 00 00 00 	lea    0x0(,%ecx,4),%eax
  1007bc:	8b 75 0c             	mov    0xc(%ebp),%esi
  1007bf:	8b 7d e0             	mov    -0x20(%ebp),%edi
  1007c2:	89 3c 06             	mov    %edi,(%esi,%eax,1)
  1007c5:	ff 45 d0             	incl   -0x30(%ebp)
  1007c8:	8b 5d d0             	mov    -0x30(%ebp),%ebx
  1007cb:	8d 51 01             	lea    0x1(%ecx),%edx
  1007ce:	39 5d e4             	cmp    %ebx,-0x1c(%ebp)
  1007d1:	0f 84 25 01 00 00    	je     1008fc <_Z11suffixArrayPiS_ii+0x424>
  1007d7:	89 55 d8             	mov    %edx,-0x28(%ebp)
  1007da:	8b 45 d8             	mov    -0x28(%ebp),%eax
  1007dd:	39 45 10             	cmp    %eax,0x10(%ebp)
  1007e0:	0f 8e 00 01 00 00    	jle    1008e6 <_Z11suffixArrayPiS_ii+0x40e>
  1007e6:	8b 45 bc             	mov    -0x44(%ebp),%eax
  1007e9:	8b 7d d4             	mov    -0x2c(%ebp),%edi
  1007ec:	8d 04 b8             	lea    (%eax,%edi,4),%eax
  1007ef:	89 45 b0             	mov    %eax,-0x50(%ebp)
  1007f2:	8b 08                	mov    (%eax),%ecx
  1007f4:	8b 45 b8             	mov    -0x48(%ebp),%eax
  1007f7:	8b 7d d0             	mov    -0x30(%ebp),%edi
  1007fa:	8d 04 b8             	lea    (%eax,%edi,4),%eax
  1007fd:	89 45 b4             	mov    %eax,-0x4c(%ebp)
  100800:	8b 00                	mov    (%eax),%eax
  100802:	89 45 e0             	mov    %eax,-0x20(%ebp)
  100805:	b8 56 55 55 55       	mov    $0x55555556,%eax
  10080a:	f7 6d e0             	imull  -0x20(%ebp)
  10080d:	8b 5d e0             	mov    -0x20(%ebp),%ebx
  100810:	c1 fb 1f             	sar    $0x1f,%ebx
  100813:	89 d0                	mov    %edx,%eax
  100815:	29 d8                	sub    %ebx,%eax
  100817:	8b 7d e0             	mov    -0x20(%ebp),%edi
  10081a:	8d 1c bd 00 00 00 00 	lea    0x0(,%edi,4),%ebx
  100821:	8b 55 08             	mov    0x8(%ebp),%edx
  100824:	8b 14 1a             	mov    (%edx,%ebx,1),%edx
  100827:	89 55 cc             	mov    %edx,-0x34(%ebp)
  10082a:	8b 75 e4             	mov    -0x1c(%ebp),%esi
  10082d:	39 f1                	cmp    %esi,%ecx
  10082f:	0f 8c 53 ff ff ff    	jl     100788 <_Z11suffixArrayPiS_ii+0x2b0>
  100835:	2b 4d e4             	sub    -0x1c(%ebp),%ecx
  100838:	8d 14 09             	lea    (%ecx,%ecx,1),%edx
  10083b:	89 d6                	mov    %edx,%esi
  10083d:	8d 7c 11 02          	lea    0x2(%ecx,%edx,1),%edi
  100841:	89 7d c0             	mov    %edi,-0x40(%ebp)
  100844:	03 45 e4             	add    -0x1c(%ebp),%eax
  100847:	8b 55 dc             	mov    -0x24(%ebp),%edx
  10084a:	8b 04 82             	mov    (%edx,%eax,4),%eax
  10084d:	89 45 a8             	mov    %eax,-0x58(%ebp)
  100850:	8b 45 08             	mov    0x8(%ebp),%eax
  100853:	8b 44 18 04          	mov    0x4(%eax,%ebx,1),%eax
  100857:	8b 5c 8a 04          	mov    0x4(%edx,%ecx,4),%ebx
  10085b:	8d 4c 31 03          	lea    0x3(%ecx,%esi,1),%ecx
  10085f:	8b 55 08             	mov    0x8(%ebp),%edx
  100862:	8b 0c 8a             	mov    (%edx,%ecx,4),%ecx
  100865:	8b 75 cc             	mov    -0x34(%ebp),%esi
  100868:	39 34 ba             	cmp    %esi,(%edx,%edi,4)
  10086b:	7c 0f                	jl     10087c <_Z11suffixArrayPiS_ii+0x3a4>
  10086d:	0f 85 3f ff ff ff    	jne    1007b2 <_Z11suffixArrayPiS_ii+0x2da>
  100873:	39 c8                	cmp    %ecx,%eax
  100875:	0f 8e e5 00 00 00    	jle    100960 <_Z11suffixArrayPiS_ii+0x488>
  10087b:	90                   	nop
  10087c:	8b 4d d8             	mov    -0x28(%ebp),%ecx
  10087f:	8d 04 8d 00 00 00 00 	lea    0x0(,%ecx,4),%eax
  100886:	8b 7d 0c             	mov    0xc(%ebp),%edi
  100889:	8b 5d c0             	mov    -0x40(%ebp),%ebx
  10088c:	89 1c 07             	mov    %ebx,(%edi,%eax,1)
  10088f:	ff 45 d4             	incl   -0x2c(%ebp)
  100892:	8b 7d d4             	mov    -0x2c(%ebp),%edi
  100895:	8d 51 01             	lea    0x1(%ecx),%edx
  100898:	39 7d c8             	cmp    %edi,-0x38(%ebp)
  10089b:	0f 85 36 ff ff ff    	jne    1007d7 <_Z11suffixArrayPiS_ii+0x2ff>
  1008a1:	8b 4d d0             	mov    -0x30(%ebp),%ecx
  1008a4:	39 4d e4             	cmp    %ecx,-0x1c(%ebp)
  1008a7:	0f 8e f3 00 00 00    	jle    1009a0 <_Z11suffixArrayPiS_ii+0x4c8>
  1008ad:	8b 4d b4             	mov    -0x4c(%ebp),%ecx
  1008b0:	8b 7d 0c             	mov    0xc(%ebp),%edi
  1008b3:	8d 44 07 04          	lea    0x4(%edi,%eax,1),%eax
  1008b7:	8b 75 a4             	mov    -0x5c(%ebp),%esi
  1008ba:	66 90                	xchg   %ax,%ax
  1008bc:	8b 19                	mov    (%ecx),%ebx
  1008be:	89 18                	mov    %ebx,(%eax)
  1008c0:	83 c1 04             	add    $0x4,%ecx
  1008c3:	83 c0 04             	add    $0x4,%eax
  1008c6:	39 ce                	cmp    %ecx,%esi
  1008c8:	75 f2                	jne    1008bc <_Z11suffixArrayPiS_ii+0x3e4>
  1008ca:	2b 55 d0             	sub    -0x30(%ebp),%edx
  1008cd:	8b 45 e4             	mov    -0x1c(%ebp),%eax
  1008d0:	8d 7c 10 01          	lea    0x1(%eax,%edx,1),%edi
  1008d4:	89 7d d8             	mov    %edi,-0x28(%ebp)
  1008d7:	89 45 d0             	mov    %eax,-0x30(%ebp)
  1008da:	8b 45 d8             	mov    -0x28(%ebp),%eax
  1008dd:	39 45 10             	cmp    %eax,0x10(%ebp)
  1008e0:	0f 8f 00 ff ff ff    	jg     1007e6 <_Z11suffixArrayPiS_ii+0x30e>
  1008e6:	8d 65 f4             	lea    -0xc(%ebp),%esp
  1008e9:	5b                   	pop    %ebx
  1008ea:	5e                   	pop    %esi
  1008eb:	5f                   	pop    %edi
  1008ec:	5d                   	pop    %ebp
  1008ed:	c3                   	ret    
  1008ee:	66 90                	xchg   %ax,%ax
  1008f0:	39 c8                	cmp    %ecx,%eax
  1008f2:	7d 88                	jge    10087c <_Z11suffixArrayPiS_ii+0x3a4>
  1008f4:	e9 b9 fe ff ff       	jmp    1007b2 <_Z11suffixArrayPiS_ii+0x2da>
  1008f9:	8d 76 00             	lea    0x0(%esi),%esi
  1008fc:	8b 75 d4             	mov    -0x2c(%ebp),%esi
  1008ff:	39 75 c8             	cmp    %esi,-0x38(%ebp)
  100902:	0f 8e 98 00 00 00    	jle    1009a0 <_Z11suffixArrayPiS_ii+0x4c8>
  100908:	8b 4d b0             	mov    -0x50(%ebp),%ecx
  10090b:	8b 7d 0c             	mov    0xc(%ebp),%edi
  10090e:	8d 5c 07 04          	lea    0x4(%edi,%eax,1),%ebx
  100912:	8b 75 e4             	mov    -0x1c(%ebp),%esi
  100915:	eb 15                	jmp    10092c <_Z11suffixArrayPiS_ii+0x454>
  100917:	90                   	nop
  100918:	8d 3c 00             	lea    (%eax,%eax,1),%edi
  10091b:	8d 44 38 01          	lea    0x1(%eax,%edi,1),%eax
  10091f:	89 03                	mov    %eax,(%ebx)
  100921:	83 c1 04             	add    $0x4,%ecx
  100924:	83 c3 04             	add    $0x4,%ebx
  100927:	39 4d ac             	cmp    %ecx,-0x54(%ebp)
  10092a:	74 1c                	je     100948 <_Z11suffixArrayPiS_ii+0x470>
  10092c:	8b 01                	mov    (%ecx),%eax
  10092e:	39 f0                	cmp    %esi,%eax
  100930:	7c e6                	jl     100918 <_Z11suffixArrayPiS_ii+0x440>
  100932:	29 f0                	sub    %esi,%eax
  100934:	8d 3c 00             	lea    (%eax,%eax,1),%edi
  100937:	8d 44 38 02          	lea    0x2(%eax,%edi,1),%eax
  10093b:	89 03                	mov    %eax,(%ebx)
  10093d:	83 c1 04             	add    $0x4,%ecx
  100940:	83 c3 04             	add    $0x4,%ebx
  100943:	39 4d ac             	cmp    %ecx,-0x54(%ebp)
  100946:	75 e4                	jne    10092c <_Z11suffixArrayPiS_ii+0x454>
  100948:	2b 55 d4             	sub    -0x2c(%ebp),%edx
  10094b:	8b 45 c8             	mov    -0x38(%ebp),%eax
  10094e:	8d 7c 10 01          	lea    0x1(%eax,%edx,1),%edi
  100952:	89 7d d8             	mov    %edi,-0x28(%ebp)
  100955:	89 45 d4             	mov    %eax,-0x2c(%ebp)
  100958:	e9 7d fe ff ff       	jmp    1007da <_Z11suffixArrayPiS_ii+0x302>
  10095d:	8d 76 00             	lea    0x0(%esi),%esi
  100960:	0f 85 4c fe ff ff    	jne    1007b2 <_Z11suffixArrayPiS_ii+0x2da>
  100966:	39 5d a8             	cmp    %ebx,-0x58(%ebp)
  100969:	0f 8c 43 fe ff ff    	jl     1007b2 <_Z11suffixArrayPiS_ii+0x2da>
  10096f:	e9 08 ff ff ff       	jmp    10087c <_Z11suffixArrayPiS_ii+0x3a4>
  100974:	50                   	push   %eax
  100975:	51                   	push   %ecx
  100976:	ff 75 bc             	pushl  -0x44(%ebp)
  100979:	8b 5d dc             	mov    -0x24(%ebp),%ebx
  10097c:	53                   	push   %ebx
  10097d:	e8 56 fb ff ff       	call   1004d8 <_Z11suffixArrayPiS_ii>
  100982:	83 c4 10             	add    $0x10,%esp
  100985:	31 c0                	xor    %eax,%eax
  100987:	89 d9                	mov    %ebx,%ecx
  100989:	8b 5d bc             	mov    -0x44(%ebp),%ebx
  10098c:	8b 14 83             	mov    (%ebx,%eax,4),%edx
  10098f:	40                   	inc    %eax
  100990:	89 04 91             	mov    %eax,(%ecx,%edx,4)
  100993:	3b 45 c8             	cmp    -0x38(%ebp),%eax
  100996:	75 f4                	jne    10098c <_Z11suffixArrayPiS_ii+0x4b4>
  100998:	e9 82 fd ff ff       	jmp    10071f <_Z11suffixArrayPiS_ii+0x247>
  10099d:	8d 76 00             	lea    0x0(%esi),%esi
  1009a0:	83 45 d8 02          	addl   $0x2,-0x28(%ebp)
  1009a4:	e9 31 fe ff ff       	jmp    1007da <_Z11suffixArrayPiS_ii+0x302>
  1009a9:	66 90                	xchg   %ax,%ax
  1009ab:	90                   	nop

001009ac <bench_ssort_prepare>:
  1009ac:	55                   	push   %ebp
  1009ad:	89 e5                	mov    %esp,%ebp
  1009af:	56                   	push   %esi
  1009b0:	53                   	push   %ebx
  1009b1:	a1 fc 57 10 00       	mov    0x1057fc,%eax
  1009b6:	8b 00                	mov    (%eax),%eax
  1009b8:	a3 ec 57 10 00       	mov    %eax,0x1057ec
  1009bd:	83 ec 0c             	sub    $0xc,%esp
  1009c0:	6a 01                	push   $0x1
  1009c2:	e8 45 06 00 00       	call   10100c <bench_srand>
  1009c7:	a1 ec 57 10 00       	mov    0x1057ec,%eax
  1009cc:	8d 04 85 28 00 00 00 	lea    0x28(,%eax,4),%eax
  1009d3:	89 04 24             	mov    %eax,(%esp)
  1009d6:	e8 ad 05 00 00       	call   100f88 <bench_alloc>
  1009db:	a3 e8 57 10 00       	mov    %eax,0x1057e8
  1009e0:	a1 ec 57 10 00       	mov    0x1057ec,%eax
  1009e5:	8d 04 85 28 00 00 00 	lea    0x28(,%eax,4),%eax
  1009ec:	89 04 24             	mov    %eax,(%esp)
  1009ef:	e8 94 05 00 00       	call   100f88 <bench_alloc>
  1009f4:	a3 e4 57 10 00       	mov    %eax,0x1057e4
  1009f9:	83 c4 10             	add    $0x10,%esp
  1009fc:	a1 ec 57 10 00       	mov    0x1057ec,%eax
  100a01:	85 c0                	test   %eax,%eax
  100a03:	7e 21                	jle    100a26 <bench_ssort_prepare+0x7a>
  100a05:	31 db                	xor    %ebx,%ebx
  100a07:	be 1a 00 00 00       	mov    $0x1a,%esi
  100a0c:	e8 0f 06 00 00       	call   101020 <bench_rand>
  100a11:	31 d2                	xor    %edx,%edx
  100a13:	f7 f6                	div    %esi
  100a15:	a1 e8 57 10 00       	mov    0x1057e8,%eax
  100a1a:	89 14 98             	mov    %edx,(%eax,%ebx,4)
  100a1d:	43                   	inc    %ebx
  100a1e:	39 1d ec 57 10 00    	cmp    %ebx,0x1057ec
  100a24:	7f e6                	jg     100a0c <bench_ssort_prepare+0x60>
  100a26:	8d 65 f8             	lea    -0x8(%ebp),%esp
  100a29:	5b                   	pop    %ebx
  100a2a:	5e                   	pop    %esi
  100a2b:	5d                   	pop    %ebp
  100a2c:	c3                   	ret    
  100a2d:	66 90                	xchg   %ax,%ax
  100a2f:	90                   	nop

00100a30 <bench_ssort_run>:
  100a30:	55                   	push   %ebp
  100a31:	89 e5                	mov    %esp,%ebp
  100a33:	83 ec 08             	sub    $0x8,%esp
  100a36:	6a 1a                	push   $0x1a
  100a38:	ff 35 ec 57 10 00    	pushl  0x1057ec
  100a3e:	ff 35 e4 57 10 00    	pushl  0x1057e4
  100a44:	ff 35 e8 57 10 00    	pushl  0x1057e8
  100a4a:	e8 89 fa ff ff       	call   1004d8 <_Z11suffixArrayPiS_ii>
  100a4f:	83 c4 10             	add    $0x10,%esp
  100a52:	c9                   	leave  
  100a53:	c3                   	ret    

00100a54 <bench_ssort_validate>:
  100a54:	55                   	push   %ebp
  100a55:	89 e5                	mov    %esp,%ebp
  100a57:	83 ec 10             	sub    $0x10,%esp
  100a5a:	a1 e4 57 10 00       	mov    0x1057e4,%eax
  100a5f:	8b 15 ec 57 10 00    	mov    0x1057ec,%edx
  100a65:	8d 14 90             	lea    (%eax,%edx,4),%edx
  100a68:	52                   	push   %edx
  100a69:	50                   	push   %eax
  100a6a:	e8 e1 05 00 00       	call   101050 <checksum>
  100a6f:	83 c4 10             	add    $0x10,%esp
  100a72:	8b 15 fc 57 10 00    	mov    0x1057fc,%edx
  100a78:	39 42 0c             	cmp    %eax,0xc(%edx)
  100a7b:	0f 94 c0             	sete   %al
  100a7e:	0f b6 c0             	movzbl %al,%eax
  100a81:	c9                   	leave  
  100a82:	c3                   	ret    
  100a83:	90                   	nop

00100a84 <myqsort>:
  100a84:	55                   	push   %ebp
  100a85:	89 e5                	mov    %esp,%ebp
  100a87:	57                   	push   %edi
  100a88:	56                   	push   %esi
  100a89:	53                   	push   %ebx
  100a8a:	83 ec 2c             	sub    $0x2c,%esp
  100a8d:	89 c7                	mov    %eax,%edi
  100a8f:	89 55 d8             	mov    %edx,-0x28(%ebp)
  100a92:	89 4d d0             	mov    %ecx,-0x30(%ebp)
  100a95:	8b 45 d0             	mov    -0x30(%ebp),%eax
  100a98:	39 45 d8             	cmp    %eax,-0x28(%ebp)
  100a9b:	7d 7f                	jge    100b1c <myqsort+0x98>
  100a9d:	8d 04 87             	lea    (%edi,%eax,4),%eax
  100aa0:	89 45 e0             	mov    %eax,-0x20(%ebp)
  100aa3:	89 7d dc             	mov    %edi,-0x24(%ebp)
  100aa6:	8b 5d d8             	mov    -0x28(%ebp),%ebx
  100aa9:	8d 04 9d 00 00 00 00 	lea    0x0(,%ebx,4),%eax
  100ab0:	8b 75 dc             	mov    -0x24(%ebp),%esi
  100ab3:	8d 0c 06             	lea    (%esi,%eax,1),%ecx
  100ab6:	89 4d d4             	mov    %ecx,-0x2c(%ebp)
  100ab9:	8b 09                	mov    (%ecx),%ecx
  100abb:	89 4d e4             	mov    %ecx,-0x1c(%ebp)
  100abe:	8d 53 01             	lea    0x1(%ebx),%edx
  100ac1:	39 55 d0             	cmp    %edx,-0x30(%ebp)
  100ac4:	7e 5e                	jle    100b24 <myqsort+0xa0>
  100ac6:	8d 44 06 04          	lea    0x4(%esi,%eax,1),%eax
  100aca:	89 d9                	mov    %ebx,%ecx
  100acc:	8b 10                	mov    (%eax),%edx
  100ace:	8d 59 01             	lea    0x1(%ecx),%ebx
  100ad1:	3b 55 e4             	cmp    -0x1c(%ebp),%edx
  100ad4:	7d 13                	jge    100ae9 <myqsort+0x65>
  100ad6:	8b 7d dc             	mov    -0x24(%ebp),%edi
  100ad9:	8d 34 9f             	lea    (%edi,%ebx,4),%esi
  100adc:	8b 3e                	mov    (%esi),%edi
  100ade:	89 16                	mov    %edx,(%esi)
  100ae0:	89 38                	mov    %edi,(%eax)
  100ae2:	8d 51 02             	lea    0x2(%ecx),%edx
  100ae5:	89 d9                	mov    %ebx,%ecx
  100ae7:	89 d3                	mov    %edx,%ebx
  100ae9:	83 c0 04             	add    $0x4,%eax
  100aec:	39 45 e0             	cmp    %eax,-0x20(%ebp)
  100aef:	75 db                	jne    100acc <myqsort+0x48>
  100af1:	8b 7d dc             	mov    -0x24(%ebp),%edi
  100af4:	8d 04 8f             	lea    (%edi,%ecx,4),%eax
  100af7:	8b 10                	mov    (%eax),%edx
  100af9:	8b 75 d4             	mov    -0x2c(%ebp),%esi
  100afc:	8b 36                	mov    (%esi),%esi
  100afe:	89 30                	mov    %esi,(%eax)
  100b00:	8b 75 d4             	mov    -0x2c(%ebp),%esi
  100b03:	89 16                	mov    %edx,(%esi)
  100b05:	8b 55 d8             	mov    -0x28(%ebp),%edx
  100b08:	89 f8                	mov    %edi,%eax
  100b0a:	e8 75 ff ff ff       	call   100a84 <myqsort>
  100b0f:	39 5d d0             	cmp    %ebx,-0x30(%ebp)
  100b12:	7e 08                	jle    100b1c <myqsort+0x98>
  100b14:	89 5d d8             	mov    %ebx,-0x28(%ebp)
  100b17:	eb 8d                	jmp    100aa6 <myqsort+0x22>
  100b19:	8d 76 00             	lea    0x0(%esi),%esi
  100b1c:	83 c4 2c             	add    $0x2c,%esp
  100b1f:	5b                   	pop    %ebx
  100b20:	5e                   	pop    %esi
  100b21:	5f                   	pop    %edi
  100b22:	5d                   	pop    %ebp
  100b23:	c3                   	ret    
  100b24:	8b 7d dc             	mov    -0x24(%ebp),%edi
  100b27:	8b 45 d8             	mov    -0x28(%ebp),%eax
  100b2a:	89 45 d0             	mov    %eax,-0x30(%ebp)
  100b2d:	e9 63 ff ff ff       	jmp    100a95 <myqsort+0x11>
  100b32:	66 90                	xchg   %ax,%ax

00100b34 <bench_qsort_prepare>:
  100b34:	55                   	push   %ebp
  100b35:	89 e5                	mov    %esp,%ebp
  100b37:	56                   	push   %esi
  100b38:	53                   	push   %ebx
  100b39:	83 ec 0c             	sub    $0xc,%esp
  100b3c:	6a 01                	push   $0x1
  100b3e:	e8 c9 04 00 00       	call   10100c <bench_srand>
  100b43:	a1 fc 57 10 00       	mov    0x1057fc,%eax
  100b48:	8b 00                	mov    (%eax),%eax
  100b4a:	a3 f4 57 10 00       	mov    %eax,0x1057f4
  100b4f:	c1 e0 02             	shl    $0x2,%eax
  100b52:	89 04 24             	mov    %eax,(%esp)
  100b55:	e8 2e 04 00 00       	call   100f88 <bench_alloc>
  100b5a:	a3 f0 57 10 00       	mov    %eax,0x1057f0
  100b5f:	83 c4 10             	add    $0x10,%esp
  100b62:	a1 f4 57 10 00       	mov    0x1057f4,%eax
  100b67:	85 c0                	test   %eax,%eax
  100b69:	7e 27                	jle    100b92 <bench_qsort_prepare+0x5e>
  100b6b:	31 f6                	xor    %esi,%esi
  100b6d:	8d 76 00             	lea    0x0(%esi),%esi
  100b70:	e8 ab 04 00 00       	call   101020 <bench_rand>
  100b75:	89 c3                	mov    %eax,%ebx
  100b77:	e8 a4 04 00 00       	call   101020 <bench_rand>
  100b7c:	c1 e3 10             	shl    $0x10,%ebx
  100b7f:	09 c3                	or     %eax,%ebx
  100b81:	a1 f0 57 10 00       	mov    0x1057f0,%eax
  100b86:	89 1c b0             	mov    %ebx,(%eax,%esi,4)
  100b89:	46                   	inc    %esi
  100b8a:	39 35 f4 57 10 00    	cmp    %esi,0x1057f4
  100b90:	7f de                	jg     100b70 <bench_qsort_prepare+0x3c>
  100b92:	8d 65 f8             	lea    -0x8(%ebp),%esp
  100b95:	5b                   	pop    %ebx
  100b96:	5e                   	pop    %esi
  100b97:	5d                   	pop    %ebp
  100b98:	c3                   	ret    
  100b99:	66 90                	xchg   %ax,%ax
  100b9b:	90                   	nop

00100b9c <bench_qsort_run>:
  100b9c:	8b 0d f4 57 10 00    	mov    0x1057f4,%ecx
  100ba2:	31 d2                	xor    %edx,%edx
  100ba4:	a1 f0 57 10 00       	mov    0x1057f0,%eax
  100ba9:	e9 d6 fe ff ff       	jmp    100a84 <myqsort>
  100bae:	66 90                	xchg   %ax,%ax

00100bb0 <bench_qsort_validate>:
  100bb0:	55                   	push   %ebp
  100bb1:	89 e5                	mov    %esp,%ebp
  100bb3:	83 ec 10             	sub    $0x10,%esp
  100bb6:	a1 f0 57 10 00       	mov    0x1057f0,%eax
  100bbb:	8b 15 f4 57 10 00    	mov    0x1057f4,%edx
  100bc1:	8d 14 90             	lea    (%eax,%edx,4),%edx
  100bc4:	52                   	push   %edx
  100bc5:	50                   	push   %eax
  100bc6:	e8 85 04 00 00       	call   101050 <checksum>
  100bcb:	83 c4 10             	add    $0x10,%esp
  100bce:	8b 15 fc 57 10 00    	mov    0x1057fc,%edx
  100bd4:	39 42 0c             	cmp    %eax,0xc(%edx)
  100bd7:	0f 94 c0             	sete   %al
  100bda:	0f b6 c0             	movzbl %al,%eax
  100bdd:	c9                   	leave  
  100bde:	c3                   	ret    
  100bdf:	90                   	nop

00100be0 <main>:
  100be0:	8d 4c 24 04          	lea    0x4(%esp),%ecx
  100be4:	83 e4 f0             	and    $0xfffffff0,%esp
  100be7:	ff 71 fc             	pushl  -0x4(%ecx)
  100bea:	55                   	push   %ebp
  100beb:	89 e5                	mov    %esp,%ebp
  100bed:	57                   	push   %edi
  100bee:	56                   	push   %esi
  100bef:	53                   	push   %ebx
  100bf0:	51                   	push   %ecx
  100bf1:	83 ec 48             	sub    $0x48,%esp
  100bf4:	8b 19                	mov    (%ecx),%ebx
  100bf6:	85 db                	test   %ebx,%ebx
  100bf8:	0f 84 c2 02 00 00    	je     100ec0 <main+0x2e0>
  100bfe:	83 ec 08             	sub    $0x8,%esp
  100c01:	68 f4 4a 10 00       	push   $0x104af4
  100c06:	53                   	push   %ebx
  100c07:	e8 2c 3b 00 00       	call   104738 <strcmp>
  100c0c:	83 c4 10             	add    $0x10,%esp
  100c0f:	85 c0                	test   %eax,%eax
  100c11:	0f 84 a9 02 00 00    	je     100ec0 <main+0x2e0>
  100c17:	83 ec 08             	sub    $0x8,%esp
  100c1a:	68 92 4a 10 00       	push   $0x104a92
  100c1f:	53                   	push   %ebx
  100c20:	e8 13 3b 00 00       	call   104738 <strcmp>
  100c25:	89 45 bc             	mov    %eax,-0x44(%ebp)
  100c28:	83 c4 10             	add    $0x10,%esp
  100c2b:	85 c0                	test   %eax,%eax
  100c2d:	74 1f                	je     100c4e <main+0x6e>
  100c2f:	50                   	push   %eax
  100c30:	50                   	push   %eax
  100c31:	68 97 4a 10 00       	push   $0x104a97
  100c36:	53                   	push   %ebx
  100c37:	e8 fc 3a 00 00       	call   104738 <strcmp>
  100c3c:	83 c4 10             	add    $0x10,%esp
  100c3f:	c7 45 bc 01 00 00 00 	movl   $0x1,-0x44(%ebp)
  100c46:	85 c0                	test   %eax,%eax
  100c48:	0f 85 ff 02 00 00    	jne    100f4d <main+0x36d>
  100c4e:	e8 c1 34 00 00       	call   104114 <ioe_init>
  100c53:	83 ec 08             	sub    $0x8,%esp
  100c56:	53                   	push   %ebx
  100c57:	68 a0 4b 10 00       	push   $0x104ba0
  100c5c:	e8 8b 3a 00 00       	call   1046ec <printf>
  100c61:	59                   	pop    %ecx
  100c62:	5b                   	pop    %ebx
  100c63:	8d 45 e0             	lea    -0x20(%ebp),%eax
  100c66:	50                   	push   %eax
  100c67:	6a 06                	push   $0x6
  100c69:	e8 ee 34 00 00       	call   10415c <ioe_read>
  100c6e:	6a 00                	push   $0x0
  100c70:	68 e8 03 00 00       	push   $0x3e8
  100c75:	ff 75 e4             	pushl  -0x1c(%ebp)
  100c78:	ff 75 e0             	pushl  -0x20(%ebp)
  100c7b:	e8 50 39 00 00       	call   1045d0 <__udivdi3>
  100c80:	89 45 b0             	mov    %eax,-0x50(%ebp)
  100c83:	8b 45 bc             	mov    -0x44(%ebp),%eax
  100c86:	40                   	inc    %eax
  100c87:	c1 e0 04             	shl    $0x4,%eax
  100c8a:	bf 20 52 10 00       	mov    $0x105220,%edi
  100c8f:	8d 70 f0             	lea    -0x10(%eax),%esi
  100c92:	89 75 d4             	mov    %esi,-0x2c(%ebp)
  100c95:	83 c4 20             	add    $0x20,%esp
  100c98:	c7 45 b8 01 00 00 00 	movl   $0x1,-0x48(%ebp)
  100c9f:	c7 45 b4 00 00 00 00 	movl   $0x0,-0x4c(%ebp)
  100ca6:	83 c0 04             	add    $0x4,%eax
  100ca9:	89 45 d0             	mov    %eax,-0x30(%ebp)
  100cac:	eb 32                	jmp    100ce0 <main+0x100>
  100cae:	66 90                	xchg   %ax,%ax
  100cb0:	50                   	push   %eax
  100cb1:	53                   	push   %ebx
  100cb2:	52                   	push   %edx
  100cb3:	68 9d 4a 10 00       	push   $0x104a9d
  100cb8:	e8 2f 3a 00 00       	call   1046ec <printf>
  100cbd:	58                   	pop    %eax
  100cbe:	5a                   	pop    %edx
  100cbf:	68 a7 4a 10 00       	push   $0x104aa7
  100cc4:	68 bd 4a 10 00       	push   $0x104abd
  100cc9:	e8 1e 3a 00 00       	call   1046ec <printf>
  100cce:	83 c4 10             	add    $0x10,%esp
  100cd1:	83 c7 44             	add    $0x44,%edi
  100cd4:	81 ff c8 54 10 00    	cmp    $0x1054c8,%edi
  100cda:	0f 84 54 01 00 00    	je     100e34 <main+0x254>
  100ce0:	89 3d 00 58 10 00    	mov    %edi,0x105800
  100ce6:	8b 45 d0             	mov    -0x30(%ebp),%eax
  100ce9:	01 f8                	add    %edi,%eax
  100ceb:	a3 fc 57 10 00       	mov    %eax,0x1057fc
  100cf0:	8b 5f 10             	mov    0x10(%edi),%ebx
  100cf3:	8b 57 0c             	mov    0xc(%edi),%edx
  100cf6:	a1 a4 55 10 00       	mov    0x1055a4,%eax
  100cfb:	2b 05 a0 55 10 00    	sub    0x1055a0,%eax
  100d01:	8b 4d d4             	mov    -0x2c(%ebp),%ecx
  100d04:	3b 44 0f 18          	cmp    0x18(%edi,%ecx,1),%eax
  100d08:	72 a6                	jb     100cb0 <main+0xd0>
  100d0a:	51                   	push   %ecx
  100d0b:	53                   	push   %ebx
  100d0c:	52                   	push   %edx
  100d0d:	68 9d 4a 10 00       	push   $0x104a9d
  100d12:	e8 d5 39 00 00       	call   1046ec <printf>
  100d17:	a1 a0 55 10 00       	mov    0x1055a0,%eax
  100d1c:	83 c0 07             	add    $0x7,%eax
  100d1f:	83 e0 f8             	and    $0xfffffff8,%eax
  100d22:	a3 f8 57 10 00       	mov    %eax,0x1057f8
  100d27:	a1 00 58 10 00       	mov    0x105800,%eax
  100d2c:	ff 10                	call   *(%eax)
  100d2e:	5b                   	pop    %ebx
  100d2f:	5e                   	pop    %esi
  100d30:	8d 45 e0             	lea    -0x20(%ebp),%eax
  100d33:	50                   	push   %eax
  100d34:	6a 06                	push   $0x6
  100d36:	e8 21 34 00 00       	call   10415c <ioe_read>
  100d3b:	8b 45 e0             	mov    -0x20(%ebp),%eax
  100d3e:	8b 55 e4             	mov    -0x1c(%ebp),%edx
  100d41:	89 45 c0             	mov    %eax,-0x40(%ebp)
  100d44:	89 55 c4             	mov    %edx,-0x3c(%ebp)
  100d47:	a1 00 58 10 00       	mov    0x105800,%eax
  100d4c:	ff 50 04             	call   *0x4(%eax)
  100d4f:	58                   	pop    %eax
  100d50:	5a                   	pop    %edx
  100d51:	8d 45 e0             	lea    -0x20(%ebp),%eax
  100d54:	50                   	push   %eax
  100d55:	6a 06                	push   $0x6
  100d57:	e8 00 34 00 00       	call   10415c <ioe_read>
  100d5c:	8b 45 e0             	mov    -0x20(%ebp),%eax
  100d5f:	8b 55 e4             	mov    -0x1c(%ebp),%edx
  100d62:	89 45 c8             	mov    %eax,-0x38(%ebp)
  100d65:	89 55 cc             	mov    %edx,-0x34(%ebp)
  100d68:	a1 00 58 10 00       	mov    0x105800,%eax
  100d6d:	ff 50 08             	call   *0x8(%eax)
  100d70:	89 c3                	mov    %eax,%ebx
  100d72:	83 c4 10             	add    $0x10,%esp
  100d75:	85 c0                	test   %eax,%eax
  100d77:	0f 84 5f 01 00 00    	je     100edc <main+0x2fc>
  100d7d:	83 ec 0c             	sub    $0xc,%esp
  100d80:	68 c9 4a 10 00       	push   $0x104ac9
  100d85:	e8 62 39 00 00       	call   1046ec <printf>
  100d8a:	83 c4 10             	add    $0x10,%esp
  100d8d:	83 e3 01             	and    $0x1,%ebx
  100d90:	0f 84 56 01 00 00    	je     100eec <main+0x30c>
  100d96:	83 ec 0c             	sub    $0xc,%esp
  100d99:	68 cb 4a 10 00       	push   $0x104acb
  100d9e:	e8 49 39 00 00       	call   1046ec <printf>
  100da3:	83 c4 10             	add    $0x10,%esp
  100da6:	6a 00                	push   $0x0
  100da8:	68 e8 03 00 00       	push   $0x3e8
  100dad:	ff 75 cc             	pushl  -0x34(%ebp)
  100db0:	ff 75 c8             	pushl  -0x38(%ebp)
  100db3:	e8 18 38 00 00       	call   1045d0 <__udivdi3>
  100db8:	83 c4 10             	add    $0x10,%esp
  100dbb:	89 c6                	mov    %eax,%esi
  100dbd:	6a 00                	push   $0x0
  100dbf:	68 e8 03 00 00       	push   $0x3e8
  100dc4:	ff 75 c4             	pushl  -0x3c(%ebp)
  100dc7:	ff 75 c0             	pushl  -0x40(%ebp)
  100dca:	e8 01 38 00 00       	call   1045d0 <__udivdi3>
  100dcf:	83 c4 10             	add    $0x10,%esp
  100dd2:	21 5d b8             	and    %ebx,-0x48(%ebp)
  100dd5:	29 c6                	sub    %eax,%esi
  100dd7:	0f 84 27 01 00 00    	je     100f04 <main+0x324>
  100ddd:	a1 fc 57 10 00       	mov    0x1057fc,%eax
  100de2:	8b 40 08             	mov    0x8(%eax),%eax
  100de5:	8d 04 80             	lea    (%eax,%eax,4),%eax
  100de8:	8d 04 80             	lea    (%eax,%eax,4),%eax
  100deb:	c1 e0 02             	shl    $0x2,%eax
  100dee:	31 d2                	xor    %edx,%edx
  100df0:	f7 f6                	div    %esi
  100df2:	89 c3                	mov    %eax,%ebx
  100df4:	01 45 b4             	add    %eax,-0x4c(%ebp)
  100df7:	83 ec 0c             	sub    $0xc,%esp
  100dfa:	68 f3 4a 10 00       	push   $0x104af3
  100dff:	e8 e8 38 00 00       	call   1046ec <printf>
  100e04:	83 c4 10             	add    $0x10,%esp
  100e07:	8b 45 bc             	mov    -0x44(%ebp),%eax
  100e0a:	85 c0                	test   %eax,%eax
  100e0c:	0f 84 bf fe ff ff    	je     100cd1 <main+0xf1>
  100e12:	51                   	push   %ecx
  100e13:	53                   	push   %ebx
  100e14:	56                   	push   %esi
  100e15:	68 dd 4a 10 00       	push   $0x104add
  100e1a:	e8 cd 38 00 00       	call   1046ec <printf>
  100e1f:	83 c4 10             	add    $0x10,%esp
  100e22:	83 c7 44             	add    $0x44,%edi
  100e25:	81 ff c8 54 10 00    	cmp    $0x1054c8,%edi
  100e2b:	0f 85 af fe ff ff    	jne    100ce0 <main+0x100>
  100e31:	8d 76 00             	lea    0x0(%esi),%esi
  100e34:	83 ec 08             	sub    $0x8,%esp
  100e37:	8d 45 e0             	lea    -0x20(%ebp),%eax
  100e3a:	50                   	push   %eax
  100e3b:	6a 06                	push   $0x6
  100e3d:	e8 1a 33 00 00       	call   10415c <ioe_read>
  100e42:	6a 00                	push   $0x0
  100e44:	68 e8 03 00 00       	push   $0x3e8
  100e49:	ff 75 e4             	pushl  -0x1c(%ebp)
  100e4c:	ff 75 e0             	pushl  -0x20(%ebp)
  100e4f:	e8 7c 37 00 00       	call   1045d0 <__udivdi3>
  100e54:	89 c3                	mov    %eax,%ebx
  100e56:	83 c4 14             	add    $0x14,%esp
  100e59:	68 d4 4b 10 00       	push   $0x104bd4
  100e5e:	e8 89 38 00 00       	call   1046ec <printf>
  100e63:	83 c4 10             	add    $0x10,%esp
  100e66:	8b 55 b8             	mov    -0x48(%ebp),%edx
  100e69:	85 d2                	test   %edx,%edx
  100e6b:	0f 85 9a 00 00 00    	jne    100f0b <main+0x32b>
  100e71:	b8 8d 4a 10 00       	mov    $0x104a8d,%eax
  100e76:	83 ec 08             	sub    $0x8,%esp
  100e79:	50                   	push   %eax
  100e7a:	68 f5 4a 10 00       	push   $0x104af5
  100e7f:	e8 68 38 00 00       	call   1046ec <printf>
  100e84:	83 c4 10             	add    $0x10,%esp
  100e87:	83 7d bc 02          	cmpl   $0x2,-0x44(%ebp)
  100e8b:	0f 84 84 00 00 00    	je     100f15 <main+0x335>
  100e91:	83 ec 0c             	sub    $0xc,%esp
  100e94:	68 f3 4a 10 00       	push   $0x104af3
  100e99:	e8 4e 38 00 00       	call   1046ec <printf>
  100e9e:	83 c4 10             	add    $0x10,%esp
  100ea1:	83 ec 08             	sub    $0x8,%esp
  100ea4:	2b 5d b0             	sub    -0x50(%ebp),%ebx
  100ea7:	53                   	push   %ebx
  100ea8:	68 28 4b 10 00       	push   $0x104b28
  100ead:	e8 3a 38 00 00       	call   1046ec <printf>
  100eb2:	31 c0                	xor    %eax,%eax
  100eb4:	8d 65 f0             	lea    -0x10(%ebp),%esp
  100eb7:	59                   	pop    %ecx
  100eb8:	5b                   	pop    %ebx
  100eb9:	5e                   	pop    %esi
  100eba:	5f                   	pop    %edi
  100ebb:	5d                   	pop    %ebp
  100ebc:	8d 61 fc             	lea    -0x4(%ecx),%esp
  100ebf:	c3                   	ret    
  100ec0:	83 ec 0c             	sub    $0xc,%esp
  100ec3:	68 40 4b 10 00       	push   $0x104b40
  100ec8:	e8 1f 38 00 00       	call   1046ec <printf>
  100ecd:	83 c4 10             	add    $0x10,%esp
  100ed0:	bb 84 4a 10 00       	mov    $0x104a84,%ebx
  100ed5:	e9 3d fd ff ff       	jmp    100c17 <main+0x37>
  100eda:	66 90                	xchg   %ax,%ax
  100edc:	83 ec 0c             	sub    $0xc,%esp
  100edf:	68 3b 4b 10 00       	push   $0x104b3b
  100ee4:	e8 03 38 00 00       	call   1046ec <printf>
  100ee9:	83 c4 10             	add    $0x10,%esp
  100eec:	83 ec 0c             	sub    $0xc,%esp
  100eef:	68 d4 4a 10 00       	push   $0x104ad4
  100ef4:	e8 f3 37 00 00       	call   1046ec <printf>
  100ef9:	83 c4 10             	add    $0x10,%esp
  100efc:	31 db                	xor    %ebx,%ebx
  100efe:	e9 a3 fe ff ff       	jmp    100da6 <main+0x1c6>
  100f03:	90                   	nop
  100f04:	31 db                	xor    %ebx,%ebx
  100f06:	e9 ec fe ff ff       	jmp    100df7 <main+0x217>
  100f0b:	b8 88 4a 10 00       	mov    $0x104a88,%eax
  100f10:	e9 61 ff ff ff       	jmp    100e76 <main+0x296>
  100f15:	50                   	push   %eax
  100f16:	50                   	push   %eax
  100f17:	b9 0a 00 00 00       	mov    $0xa,%ecx
  100f1c:	8b 45 b4             	mov    -0x4c(%ebp),%eax
  100f1f:	31 d2                	xor    %edx,%edx
  100f21:	f7 f1                	div    %ecx
  100f23:	50                   	push   %eax
  100f24:	68 03 4b 10 00       	push   $0x104b03
  100f29:	e8 be 37 00 00       	call   1046ec <printf>
  100f2e:	83 c4 0c             	add    $0xc,%esp
  100f31:	68 15 4b 10 00       	push   $0x104b15
  100f36:	68 a0 86 01 00       	push   $0x186a0
  100f3b:	68 08 4c 10 00       	push   $0x104c08
  100f40:	e8 a7 37 00 00       	call   1046ec <printf>
  100f45:	83 c4 10             	add    $0x10,%esp
  100f48:	e9 54 ff ff ff       	jmp    100ea1 <main+0x2c1>
  100f4d:	57                   	push   %edi
  100f4e:	57                   	push   %edi
  100f4f:	68 84 4a 10 00       	push   $0x104a84
  100f54:	53                   	push   %ebx
  100f55:	e8 de 37 00 00       	call   104738 <strcmp>
  100f5a:	83 c4 10             	add    $0x10,%esp
  100f5d:	c7 45 bc 02 00 00 00 	movl   $0x2,-0x44(%ebp)
  100f64:	85 c0                	test   %eax,%eax
  100f66:	0f 84 e2 fc ff ff    	je     100c4e <main+0x6e>
  100f6c:	56                   	push   %esi
  100f6d:	56                   	push   %esi
  100f6e:	53                   	push   %ebx
  100f6f:	68 68 4b 10 00       	push   $0x104b68
  100f74:	e8 73 37 00 00       	call   1046ec <printf>
  100f79:	c7 04 24 01 00 00 00 	movl   $0x1,(%esp)
  100f80:	e8 bb 30 00 00       	call   104040 <halt>
  100f85:	66 90                	xchg   %ax,%ax
  100f87:	90                   	nop

00100f88 <bench_alloc>:
  100f88:	55                   	push   %ebp
  100f89:	89 e5                	mov    %esp,%ebp
  100f8b:	53                   	push   %ebx
  100f8c:	51                   	push   %ecx
  100f8d:	8b 45 08             	mov    0x8(%ebp),%eax
  100f90:	8d 50 07             	lea    0x7(%eax),%edx
  100f93:	8b 0d f8 57 10 00    	mov    0x1057f8,%ecx
  100f99:	83 e2 f8             	and    $0xfffffff8,%edx
  100f9c:	01 ca                	add    %ecx,%edx
  100f9e:	89 15 f8 57 10 00    	mov    %edx,0x1057f8
  100fa4:	8b 1d a0 55 10 00    	mov    0x1055a0,%ebx
  100faa:	39 d3                	cmp    %edx,%ebx
  100fac:	77 35                	ja     100fe3 <bench_alloc+0x5b>
  100fae:	39 15 a4 55 10 00    	cmp    %edx,0x1055a4
  100fb4:	76 2d                	jbe    100fe3 <bench_alloc+0x5b>
  100fb6:	89 c8                	mov    %ecx,%eax
  100fb8:	39 ca                	cmp    %ecx,%edx
  100fba:	74 14                	je     100fd0 <bench_alloc+0x48>
  100fbc:	c7 00 00 00 00 00    	movl   $0x0,(%eax)
  100fc2:	c7 40 04 00 00 00 00 	movl   $0x0,0x4(%eax)
  100fc9:	83 c0 08             	add    $0x8,%eax
  100fcc:	39 c2                	cmp    %eax,%edx
  100fce:	75 ec                	jne    100fbc <bench_alloc+0x34>
  100fd0:	29 da                	sub    %ebx,%edx
  100fd2:	a1 fc 57 10 00       	mov    0x1057fc,%eax
  100fd7:	3b 50 04             	cmp    0x4(%eax),%edx
  100fda:	77 28                	ja     101004 <bench_alloc+0x7c>
  100fdc:	89 c8                	mov    %ecx,%eax
  100fde:	8b 5d fc             	mov    -0x4(%ebp),%ebx
  100fe1:	c9                   	leave  
  100fe2:	c3                   	ret    
  100fe3:	52                   	push   %edx
  100fe4:	68 8f 00 00 00       	push   $0x8f
  100fe9:	68 30 4c 10 00       	push   $0x104c30
  100fee:	68 7b 4c 10 00       	push   $0x104c7b
  100ff3:	e8 f4 36 00 00       	call   1046ec <printf>
  100ff8:	c7 04 24 01 00 00 00 	movl   $0x1,(%esp)
  100fff:	e8 3c 30 00 00       	call   104040 <halt>
  101004:	50                   	push   %eax
  101005:	68 93 00 00 00       	push   $0x93
  10100a:	eb dd                	jmp    100fe9 <bench_alloc+0x61>

0010100c <bench_srand>:
  10100c:	55                   	push   %ebp
  10100d:	89 e5                	mov    %esp,%ebp
  10100f:	8b 45 08             	mov    0x8(%ebp),%eax
  101012:	25 ff 7f 00 00       	and    $0x7fff,%eax
  101017:	a3 18 52 10 00       	mov    %eax,0x105218
  10101c:	5d                   	pop    %ebp
  10101d:	c3                   	ret    
  10101e:	66 90                	xchg   %ax,%ax

00101020 <bench_rand>:
  101020:	8b 15 18 52 10 00    	mov    0x105218,%edx
  101026:	8d 04 12             	lea    (%edx,%edx,1),%eax
  101029:	01 d0                	add    %edx,%eax
  10102b:	8d 04 82             	lea    (%edx,%eax,4),%eax
  10102e:	c1 e0 04             	shl    $0x4,%eax
  101031:	01 d0                	add    %edx,%eax
  101033:	c1 e0 08             	shl    $0x8,%eax
  101036:	29 d0                	sub    %edx,%eax
  101038:	8d 84 82 c3 9e 26 00 	lea    0x269ec3(%edx,%eax,4),%eax
  10103f:	a3 18 52 10 00       	mov    %eax,0x105218
  101044:	c1 e8 10             	shr    $0x10,%eax
  101047:	25 ff 7f 00 00       	and    $0x7fff,%eax
  10104c:	c3                   	ret    
  10104d:	66 90                	xchg   %ax,%ax
  10104f:	90                   	nop

00101050 <checksum>:
  101050:	55                   	push   %ebp
  101051:	89 e5                	mov    %esp,%ebp
  101053:	56                   	push   %esi
  101054:	53                   	push   %ebx
  101055:	8b 5d 08             	mov    0x8(%ebp),%ebx
  101058:	8d 43 04             	lea    0x4(%ebx),%eax
  10105b:	39 45 0c             	cmp    %eax,0xc(%ebp)
  10105e:	76 61                	jbe    1010c1 <checksum+0x71>
  101060:	8b 75 0c             	mov    0xc(%ebp),%esi
  101063:	83 ee 05             	sub    $0x5,%esi
  101066:	29 de                	sub    %ebx,%esi
  101068:	83 e6 fc             	and    $0xfffffffc,%esi
  10106b:	01 c6                	add    %eax,%esi
  10106d:	b8 c5 9d 1c 81       	mov    $0x811c9dc5,%eax
  101072:	66 90                	xchg   %ax,%ax
  101074:	31 c9                	xor    %ecx,%ecx
  101076:	0f b6 14 0b          	movzbl (%ebx,%ecx,1),%edx
  10107a:	31 d0                	xor    %edx,%eax
  10107c:	89 c2                	mov    %eax,%edx
  10107e:	c1 e2 10             	shl    $0x10,%edx
  101081:	01 c2                	add    %eax,%edx
  101083:	01 d2                	add    %edx,%edx
  101085:	01 c2                	add    %eax,%edx
  101087:	8d 14 d0             	lea    (%eax,%edx,8),%edx
  10108a:	8d 14 d0             	lea    (%eax,%edx,8),%edx
  10108d:	01 d2                	add    %edx,%edx
  10108f:	01 d0                	add    %edx,%eax
  101091:	41                   	inc    %ecx
  101092:	83 f9 04             	cmp    $0x4,%ecx
  101095:	75 df                	jne    101076 <checksum+0x26>
  101097:	83 c3 04             	add    $0x4,%ebx
  10109a:	39 de                	cmp    %ebx,%esi
  10109c:	75 d6                	jne    101074 <checksum+0x24>
  10109e:	89 c2                	mov    %eax,%edx
  1010a0:	c1 e2 0d             	shl    $0xd,%edx
  1010a3:	01 c2                	add    %eax,%edx
  1010a5:	89 d0                	mov    %edx,%eax
  1010a7:	c1 f8 07             	sar    $0x7,%eax
  1010aa:	31 d0                	xor    %edx,%eax
  1010ac:	8d 14 c0             	lea    (%eax,%eax,8),%edx
  1010af:	89 d0                	mov    %edx,%eax
  1010b1:	c1 f8 11             	sar    $0x11,%eax
  1010b4:	31 d0                	xor    %edx,%eax
  1010b6:	89 c2                	mov    %eax,%edx
  1010b8:	c1 e2 05             	shl    $0x5,%edx
  1010bb:	01 d0                	add    %edx,%eax
  1010bd:	5b                   	pop    %ebx
  1010be:	5e                   	pop    %esi
  1010bf:	5d                   	pop    %ebp
  1010c0:	c3                   	ret    
  1010c1:	b8 9e 07 f0 a6       	mov    $0xa6f0079e,%eax
  1010c6:	5b                   	pop    %ebx
  1010c7:	5e                   	pop    %esi
  1010c8:	5d                   	pop    %ebp
  1010c9:	c3                   	ret    
  1010ca:	66 90                	xchg   %ax,%ax

001010cc <bench_memcpy.part.0>:
  1010cc:	55                   	push   %ebp
  1010cd:	89 e5                	mov    %esp,%ebp
  1010cf:	83 ec 0c             	sub    $0xc,%esp
  1010d2:	6a 08                	push   $0x8
  1010d4:	68 6c 4d 10 00       	push   $0x104d6c
  1010d9:	68 7b 4c 10 00       	push   $0x104c7b
  1010de:	e8 09 36 00 00       	call   1046ec <printf>
  1010e3:	c7 04 24 01 00 00 00 	movl   $0x1,(%esp)
  1010ea:	e8 51 2f 00 00       	call   104040 <halt>
  1010ef:	90                   	nop

001010f0 <qlz_compress>:
  1010f0:	55                   	push   %ebp
  1010f1:	89 e5                	mov    %esp,%ebp
  1010f3:	57                   	push   %edi
  1010f4:	56                   	push   %esi
  1010f5:	53                   	push   %ebx
  1010f6:	83 ec 6c             	sub    $0x6c,%esp
  1010f9:	8b 45 10             	mov    0x10(%ebp),%eax
  1010fc:	48                   	dec    %eax
  1010fd:	89 45 90             	mov    %eax,-0x70(%ebp)
  101100:	3d 6e fe ff ff       	cmp    $0xfffffe6e,%eax
  101105:	0f 87 c0 04 00 00    	ja     1015cb <qlz_compress+0x4db>
  10110b:	81 7d 10 d8 00 00 00 	cmpl   $0xd8,0x10(%ebp)
  101112:	19 c0                	sbb    %eax,%eax
  101114:	83 e0 fa             	and    $0xfffffffa,%eax
  101117:	83 c0 09             	add    $0x9,%eax
  10111a:	89 45 94             	mov    %eax,-0x6c(%ebp)
  10111d:	8b 45 14             	mov    0x14(%ebp),%eax
  101120:	05 04 80 00 00       	add    $0x8004,%eax
  101125:	8b 7d 14             	mov    0x14(%ebp),%edi
  101128:	8d 97 04 88 00 00    	lea    0x8804(%edi),%edx
  10112e:	66 90                	xchg   %ax,%ax
  101130:	c6 00 00             	movb   $0x0,(%eax)
  101133:	40                   	inc    %eax
  101134:	39 c2                	cmp    %eax,%edx
  101136:	75 f8                	jne    101130 <qlz_compress+0x40>
  101138:	8b 7d 0c             	mov    0xc(%ebp),%edi
  10113b:	8b 45 94             	mov    -0x6c(%ebp),%eax
  10113e:	8d 1c 07             	lea    (%edi,%eax,1),%ebx
  101141:	89 5d 98             	mov    %ebx,-0x68(%ebp)
  101144:	8b 75 08             	mov    0x8(%ebp),%esi
  101147:	8b 7d 90             	mov    -0x70(%ebp),%edi
  10114a:	8d 0c 3e             	lea    (%esi,%edi,1),%ecx
  10114d:	89 4d 88             	mov    %ecx,-0x78(%ebp)
  101150:	8b 75 0c             	mov    0xc(%ebp),%esi
  101153:	8d 44 06 04          	lea    0x4(%esi,%eax,1),%eax
  101157:	89 45 d0             	mov    %eax,-0x30(%ebp)
  10115a:	8b 45 08             	mov    0x8(%ebp),%eax
  10115d:	8d 44 38 f6          	lea    -0xa(%eax,%edi,1),%eax
  101161:	89 45 a4             	mov    %eax,-0x5c(%ebp)
  101164:	39 45 08             	cmp    %eax,0x8(%ebp)
  101167:	0f 87 fa 04 00 00    	ja     101667 <qlz_compress+0x577>
  10116d:	8b 45 10             	mov    0x10(%ebp),%eax
  101170:	d1 e8                	shr    %eax
  101172:	03 45 08             	add    0x8(%ebp),%eax
  101175:	89 45 9c             	mov    %eax,-0x64(%ebp)
  101178:	8d 41 fc             	lea    -0x4(%ecx),%eax
  10117b:	89 45 a0             	mov    %eax,-0x60(%ebp)
  10117e:	8b 7d 08             	mov    0x8(%ebp),%edi
  101181:	89 5d b0             	mov    %ebx,-0x50(%ebp)
  101184:	c7 45 d4 00 00 00 80 	movl   $0x80000000,-0x2c(%ebp)
  10118b:	90                   	nop
  10118c:	8b 45 a0             	mov    -0x60(%ebp),%eax
  10118f:	29 f8                	sub    %edi,%eax
  101191:	89 45 cc             	mov    %eax,-0x34(%ebp)
  101194:	3d fe 00 00 00       	cmp    $0xfe,%eax
  101199:	7e 07                	jle    1011a2 <qlz_compress+0xb2>
  10119b:	c7 45 cc fe 00 00 00 	movl   $0xfe,-0x34(%ebp)
  1011a2:	8b 45 cc             	mov    -0x34(%ebp),%eax
  1011a5:	40                   	inc    %eax
  1011a6:	89 45 a8             	mov    %eax,-0x58(%ebp)
  1011a9:	0f b6 47 01          	movzbl 0x1(%edi),%eax
  1011ad:	c1 e0 08             	shl    $0x8,%eax
  1011b0:	89 c1                	mov    %eax,%ecx
  1011b2:	0f b6 47 02          	movzbl 0x2(%edi),%eax
  1011b6:	c1 e0 10             	shl    $0x10,%eax
  1011b9:	89 c2                	mov    %eax,%edx
  1011bb:	89 c8                	mov    %ecx,%eax
  1011bd:	09 d0                	or     %edx,%eax
  1011bf:	0f b6 17             	movzbl (%edi),%edx
  1011c2:	89 d6                	mov    %edx,%esi
  1011c4:	09 c6                	or     %eax,%esi
  1011c6:	89 75 bc             	mov    %esi,-0x44(%ebp)
  1011c9:	89 c2                	mov    %eax,%edx
  1011cb:	c1 ea 09             	shr    $0x9,%edx
  1011ce:	c1 e8 0d             	shr    $0xd,%eax
  1011d1:	31 d0                	xor    %edx,%eax
  1011d3:	31 f0                	xor    %esi,%eax
  1011d5:	25 ff 07 00 00       	and    $0x7ff,%eax
  1011da:	89 c6                	mov    %eax,%esi
  1011dc:	8b 45 14             	mov    0x14(%ebp),%eax
  1011df:	8a 8c 30 04 80 00 00 	mov    0x8004(%eax,%esi,1),%cl
  1011e6:	88 4d c0             	mov    %cl,-0x40(%ebp)
  1011e9:	89 f2                	mov    %esi,%edx
  1011eb:	c1 e2 04             	shl    $0x4,%edx
  1011ee:	01 c2                	add    %eax,%edx
  1011f0:	8b 42 04             	mov    0x4(%edx),%eax
  1011f3:	8d 5f fe             	lea    -0x2(%edi),%ebx
  1011f6:	89 5d b4             	mov    %ebx,-0x4c(%ebp)
  1011f9:	39 d8                	cmp    %ebx,%eax
  1011fb:	0f 83 97 00 00 00    	jae    101298 <qlz_compress+0x1a8>
  101201:	84 c9                	test   %cl,%cl
  101203:	0f 85 a7 02 00 00    	jne    1014b0 <qlz_compress+0x3c0>
  101209:	89 7a 04             	mov    %edi,0x4(%edx)
  10120c:	8b 45 14             	mov    0x14(%ebp),%eax
  10120f:	c6 84 30 04 80 00 00 	movb   $0x1,0x8004(%eax,%esi,1)
  101216:	01 
  101217:	d1 6d d4             	shrl   -0x2c(%ebp)
  10121a:	8b 4d d0             	mov    -0x30(%ebp),%ecx
  10121d:	8a 07                	mov    (%edi),%al
  10121f:	88 01                	mov    %al,(%ecx)
  101221:	41                   	inc    %ecx
  101222:	89 4d d0             	mov    %ecx,-0x30(%ebp)
  101225:	47                   	inc    %edi
  101226:	8b 4d d4             	mov    -0x2c(%ebp),%ecx
  101229:	83 e1 01             	and    $0x1,%ecx
  10122c:	39 7d a4             	cmp    %edi,-0x5c(%ebp)
  10122f:	0f 82 11 01 00 00    	jb     101346 <qlz_compress+0x256>
  101235:	85 c9                	test   %ecx,%ecx
  101237:	0f 84 4f ff ff ff    	je     10118c <qlz_compress+0x9c>
  10123d:	39 7d 9c             	cmp    %edi,-0x64(%ebp)
  101240:	73 1a                	jae    10125c <qlz_compress+0x16c>
  101242:	89 f8                	mov    %edi,%eax
  101244:	2b 45 08             	sub    0x8(%ebp),%eax
  101247:	8b 55 d0             	mov    -0x30(%ebp),%edx
  10124a:	2b 55 98             	sub    -0x68(%ebp),%edx
  10124d:	89 c1                	mov    %eax,%ecx
  10124f:	c1 f9 05             	sar    $0x5,%ecx
  101252:	29 c8                	sub    %ecx,%eax
  101254:	39 c2                	cmp    %eax,%edx
  101256:	0f 8f c4 03 00 00    	jg     101620 <qlz_compress+0x530>
  10125c:	8b 45 d4             	mov    -0x2c(%ebp),%eax
  10125f:	d1 e8                	shr    %eax
  101261:	0d 00 00 00 80       	or     $0x80000000,%eax
  101266:	89 45 e4             	mov    %eax,-0x1c(%ebp)
  101269:	31 c0                	xor    %eax,%eax
  10126b:	8d 55 e4             	lea    -0x1c(%ebp),%edx
  10126e:	8b 4d b0             	mov    -0x50(%ebp),%ecx
  101271:	8d 76 00             	lea    0x0(%esi),%esi
  101274:	8a 1c 02             	mov    (%edx,%eax,1),%bl
  101277:	88 1c 01             	mov    %bl,(%ecx,%eax,1)
  10127a:	40                   	inc    %eax
  10127b:	83 f8 04             	cmp    $0x4,%eax
  10127e:	75 f4                	jne    101274 <qlz_compress+0x184>
  101280:	8b 45 d0             	mov    -0x30(%ebp),%eax
  101283:	89 45 b0             	mov    %eax,-0x50(%ebp)
  101286:	83 c0 04             	add    $0x4,%eax
  101289:	89 45 d0             	mov    %eax,-0x30(%ebp)
  10128c:	c7 45 d4 00 00 00 80 	movl   $0x80000000,-0x2c(%ebp)
  101293:	e9 f4 fe ff ff       	jmp    10118c <qlz_compress+0x9c>
  101298:	31 d2                	xor    %edx,%edx
  10129a:	0f b6 45 c0          	movzbl -0x40(%ebp),%eax
  10129e:	89 45 c8             	mov    %eax,-0x38(%ebp)
  1012a1:	89 f0                	mov    %esi,%eax
  1012a3:	c1 e0 04             	shl    $0x4,%eax
  1012a6:	03 45 14             	add    0x14(%ebp),%eax
  1012a9:	89 45 c4             	mov    %eax,-0x3c(%ebp)
  1012ac:	c7 45 ac 00 00 00 00 	movl   $0x0,-0x54(%ebp)
  1012b3:	b8 01 00 00 00       	mov    $0x1,%eax
  1012b8:	89 75 b8             	mov    %esi,-0x48(%ebp)
  1012bb:	3b 45 c8             	cmp    -0x38(%ebp),%eax
  1012be:	73 19                	jae    1012d9 <qlz_compress+0x1e9>
  1012c0:	8b 75 c4             	mov    -0x3c(%ebp),%esi
  1012c3:	8b 4c 86 04          	mov    0x4(%esi,%eax,4),%ecx
  1012c7:	8a 1c 11             	mov    (%ecx,%edx,1),%bl
  1012ca:	38 1c 17             	cmp    %bl,(%edi,%edx,1)
  1012cd:	0f 84 6d 01 00 00    	je     101440 <qlz_compress+0x350>
  1012d3:	40                   	inc    %eax
  1012d4:	83 f8 04             	cmp    $0x4,%eax
  1012d7:	75 e2                	jne    1012bb <qlz_compress+0x1cb>
  1012d9:	8b 75 b8             	mov    -0x48(%ebp),%esi
  1012dc:	8a 4d c0             	mov    -0x40(%ebp),%cl
  1012df:	89 c8                	mov    %ecx,%eax
  1012e1:	83 e0 03             	and    $0x3,%eax
  1012e4:	8d 04 b0             	lea    (%eax,%esi,4),%eax
  1012e7:	8b 5d 14             	mov    0x14(%ebp),%ebx
  1012ea:	89 7c 83 04          	mov    %edi,0x4(%ebx,%eax,4)
  1012ee:	88 c8                	mov    %cl,%al
  1012f0:	40                   	inc    %eax
  1012f1:	88 84 33 04 80 00 00 	mov    %al,0x8004(%ebx,%esi,1)
  1012f8:	d1 6d d4             	shrl   -0x2c(%ebp)
  1012fb:	8b 45 d4             	mov    -0x2c(%ebp),%eax
  1012fe:	83 fa 02             	cmp    $0x2,%edx
  101301:	0f 86 13 ff ff ff    	jbe    10121a <qlz_compress+0x12a>
  101307:	0d 00 00 00 80       	or     $0x80000000,%eax
  10130c:	89 45 d4             	mov    %eax,-0x2c(%ebp)
  10130f:	01 d7                	add    %edx,%edi
  101311:	89 f0                	mov    %esi,%eax
  101313:	c1 e0 05             	shl    $0x5,%eax
  101316:	0b 45 ac             	or     -0x54(%ebp),%eax
  101319:	83 fa 09             	cmp    $0x9,%edx
  10131c:	0f 87 c6 01 00 00    	ja     1014e8 <qlz_compress+0x3f8>
  101322:	8d 14 95 f8 ff ff ff 	lea    -0x8(,%edx,4),%edx
  101329:	09 d0                	or     %edx,%eax
  10132b:	8b 4d d0             	mov    -0x30(%ebp),%ecx
  10132e:	66 89 01             	mov    %ax,(%ecx)
  101331:	83 c1 02             	add    $0x2,%ecx
  101334:	89 4d d0             	mov    %ecx,-0x30(%ebp)
  101337:	8b 4d d4             	mov    -0x2c(%ebp),%ecx
  10133a:	83 e1 01             	and    $0x1,%ecx
  10133d:	39 7d a4             	cmp    %edi,-0x5c(%ebp)
  101340:	0f 83 ef fe ff ff    	jae    101235 <qlz_compress+0x145>
  101346:	8b 45 d4             	mov    -0x2c(%ebp),%eax
  101349:	d1 e8                	shr    %eax
  10134b:	89 45 cc             	mov    %eax,-0x34(%ebp)
  10134e:	8d 5d e4             	lea    -0x1c(%ebp),%ebx
  101351:	39 7d 88             	cmp    %edi,-0x78(%ebp)
  101354:	0f 82 b6 01 00 00    	jb     101510 <qlz_compress+0x420>
  10135a:	8b 45 88             	mov    -0x78(%ebp),%eax
  10135d:	83 e8 03             	sub    $0x3,%eax
  101360:	89 45 c4             	mov    %eax,-0x3c(%ebp)
  101363:	8b 45 08             	mov    0x8(%ebp),%eax
  101366:	03 45 10             	add    0x10(%ebp),%eax
  101369:	89 45 c8             	mov    %eax,-0x38(%ebp)
  10136c:	8d 5d e4             	lea    -0x1c(%ebp),%ebx
  10136f:	8b 4d d0             	mov    -0x30(%ebp),%ecx
  101372:	89 5d bc             	mov    %ebx,-0x44(%ebp)
  101375:	eb 71                	jmp    1013e8 <qlz_compress+0x2f8>
  101377:	90                   	nop
  101378:	89 c2                	mov    %eax,%edx
  10137a:	83 e2 01             	and    $0x1,%edx
  10137d:	89 55 c0             	mov    %edx,-0x40(%ebp)
  101380:	c1 ee 02             	shr    $0x2,%esi
  101383:	89 75 cc             	mov    %esi,-0x34(%ebp)
  101386:	89 45 d4             	mov    %eax,-0x2c(%ebp)
  101389:	8a 17                	mov    (%edi),%dl
  10138b:	3b 7d c4             	cmp    -0x3c(%ebp),%edi
  10138e:	77 4b                	ja     1013db <qlz_compress+0x2eb>
  101390:	0f b6 77 01          	movzbl 0x1(%edi),%esi
  101394:	c1 e6 08             	shl    $0x8,%esi
  101397:	0f b6 47 02          	movzbl 0x2(%edi),%eax
  10139b:	c1 e0 10             	shl    $0x10,%eax
  10139e:	09 c6                	or     %eax,%esi
  1013a0:	0f b6 c2             	movzbl %dl,%eax
  1013a3:	09 f0                	or     %esi,%eax
  1013a5:	89 f2                	mov    %esi,%edx
  1013a7:	c1 ea 09             	shr    $0x9,%edx
  1013aa:	c1 ee 0d             	shr    $0xd,%esi
  1013ad:	31 d6                	xor    %edx,%esi
  1013af:	31 c6                	xor    %eax,%esi
  1013b1:	89 f0                	mov    %esi,%eax
  1013b3:	25 ff 07 00 00       	and    $0x7ff,%eax
  1013b8:	8b 75 14             	mov    0x14(%ebp),%esi
  1013bb:	8a 94 06 04 80 00 00 	mov    0x8004(%esi,%eax,1),%dl
  1013c2:	89 d6                	mov    %edx,%esi
  1013c4:	83 e6 03             	and    $0x3,%esi
  1013c7:	8d 34 86             	lea    (%esi,%eax,4),%esi
  1013ca:	8b 5d 14             	mov    0x14(%ebp),%ebx
  1013cd:	89 7c b3 04          	mov    %edi,0x4(%ebx,%esi,4)
  1013d1:	42                   	inc    %edx
  1013d2:	88 94 03 04 80 00 00 	mov    %dl,0x8004(%ebx,%eax,1)
  1013d9:	8a 17                	mov    (%edi),%dl
  1013db:	88 11                	mov    %dl,(%ecx)
  1013dd:	47                   	inc    %edi
  1013de:	41                   	inc    %ecx
  1013df:	3b 7d c8             	cmp    -0x38(%ebp),%edi
  1013e2:	0f 84 1f 01 00 00    	je     101507 <qlz_compress+0x417>
  1013e8:	8b 75 d4             	mov    -0x2c(%ebp),%esi
  1013eb:	89 f0                	mov    %esi,%eax
  1013ed:	d1 e8                	shr    %eax
  1013ef:	f7 c6 01 00 00 00    	test   $0x1,%esi
  1013f5:	74 81                	je     101378 <qlz_compress+0x288>
  1013f7:	0d 00 00 00 80       	or     $0x80000000,%eax
  1013fc:	89 45 e4             	mov    %eax,-0x1c(%ebp)
  1013ff:	31 c0                	xor    %eax,%eax
  101401:	89 ce                	mov    %ecx,%esi
  101403:	8b 55 b0             	mov    -0x50(%ebp),%edx
  101406:	8b 5d bc             	mov    -0x44(%ebp),%ebx
  101409:	8d 76 00             	lea    0x0(%esi),%esi
  10140c:	8a 0c 03             	mov    (%ebx,%eax,1),%cl
  10140f:	88 0c 02             	mov    %cl,(%edx,%eax,1)
  101412:	40                   	inc    %eax
  101413:	83 f8 04             	cmp    $0x4,%eax
  101416:	75 f4                	jne    10140c <qlz_compress+0x31c>
  101418:	89 f1                	mov    %esi,%ecx
  10141a:	89 5d bc             	mov    %ebx,-0x44(%ebp)
  10141d:	89 75 b0             	mov    %esi,-0x50(%ebp)
  101420:	83 c1 04             	add    $0x4,%ecx
  101423:	c7 45 cc 00 00 00 20 	movl   $0x20000000,-0x34(%ebp)
  10142a:	c7 45 c0 00 00 00 00 	movl   $0x0,-0x40(%ebp)
  101431:	c7 45 d4 00 00 00 40 	movl   $0x40000000,-0x2c(%ebp)
  101438:	e9 4c ff ff ff       	jmp    101389 <qlz_compress+0x299>
  10143d:	8d 76 00             	lea    0x0(%esi),%esi
  101440:	0f b6 59 01          	movzbl 0x1(%ecx),%ebx
  101444:	c1 e3 08             	shl    $0x8,%ebx
  101447:	89 de                	mov    %ebx,%esi
  101449:	0f b6 59 02          	movzbl 0x2(%ecx),%ebx
  10144d:	c1 e3 10             	shl    $0x10,%ebx
  101450:	09 f3                	or     %esi,%ebx
  101452:	0f b6 31             	movzbl (%ecx),%esi
  101455:	09 f3                	or     %esi,%ebx
  101457:	3b 5d bc             	cmp    -0x44(%ebp),%ebx
  10145a:	0f 85 73 fe ff ff    	jne    1012d3 <qlz_compress+0x1e3>
  101460:	39 4d b4             	cmp    %ecx,-0x4c(%ebp)
  101463:	0f 86 6a fe ff ff    	jbe    1012d3 <qlz_compress+0x1e3>
  101469:	8a 5f 03             	mov    0x3(%edi),%bl
  10146c:	38 59 03             	cmp    %bl,0x3(%ecx)
  10146f:	bb 03 00 00 00       	mov    $0x3,%ebx
  101474:	75 25                	jne    10149b <qlz_compress+0x3ab>
  101476:	83 7d a8 03          	cmpl   $0x3,-0x58(%ebp)
  10147a:	76 1f                	jbe    10149b <qlz_compress+0x3ab>
  10147c:	89 45 8c             	mov    %eax,-0x74(%ebp)
  10147f:	eb 0c                	jmp    10148d <qlz_compress+0x39d>
  101481:	8d 76 00             	lea    0x0(%esi),%esi
  101484:	39 75 cc             	cmp    %esi,-0x34(%ebp)
  101487:	0f 84 33 01 00 00    	je     1015c0 <qlz_compress+0x4d0>
  10148d:	89 de                	mov    %ebx,%esi
  10148f:	43                   	inc    %ebx
  101490:	8a 04 1f             	mov    (%edi,%ebx,1),%al
  101493:	38 04 19             	cmp    %al,(%ecx,%ebx,1)
  101496:	74 ec                	je     101484 <qlz_compress+0x394>
  101498:	8b 45 8c             	mov    -0x74(%ebp),%eax
  10149b:	39 da                	cmp    %ebx,%edx
  10149d:	0f 83 30 fe ff ff    	jae    1012d3 <qlz_compress+0x1e3>
  1014a3:	89 45 ac             	mov    %eax,-0x54(%ebp)
  1014a6:	89 da                	mov    %ebx,%edx
  1014a8:	e9 26 fe ff ff       	jmp    1012d3 <qlz_compress+0x1e3>
  1014ad:	8d 76 00             	lea    0x0(%esi),%esi
  1014b0:	0f b6 50 01          	movzbl 0x1(%eax),%edx
  1014b4:	89 d1                	mov    %edx,%ecx
  1014b6:	c1 e1 08             	shl    $0x8,%ecx
  1014b9:	0f b6 50 02          	movzbl 0x2(%eax),%edx
  1014bd:	c1 e2 10             	shl    $0x10,%edx
  1014c0:	09 ca                	or     %ecx,%edx
  1014c2:	0f b6 08             	movzbl (%eax),%ecx
  1014c5:	09 ca                	or     %ecx,%edx
  1014c7:	3b 55 bc             	cmp    -0x44(%ebp),%edx
  1014ca:	0f 85 c8 fd ff ff    	jne    101298 <qlz_compress+0x1a8>
  1014d0:	8a 4f 03             	mov    0x3(%edi),%cl
  1014d3:	38 48 03             	cmp    %cl,0x3(%eax)
  1014d6:	0f 84 07 01 00 00    	je     1015e3 <qlz_compress+0x4f3>
  1014dc:	ba 03 00 00 00       	mov    $0x3,%edx
  1014e1:	e9 b4 fd ff ff       	jmp    10129a <qlz_compress+0x1aa>
  1014e6:	66 90                	xchg   %ax,%ax
  1014e8:	c1 e2 10             	shl    $0x10,%edx
  1014eb:	09 d0                	or     %edx,%eax
  1014ed:	8b 75 d0             	mov    -0x30(%ebp),%esi
  1014f0:	66 89 06             	mov    %ax,(%esi)
  1014f3:	c1 e0 08             	shl    $0x8,%eax
  1014f6:	c1 f8 18             	sar    $0x18,%eax
  1014f9:	88 46 02             	mov    %al,0x2(%esi)
  1014fc:	83 c6 03             	add    $0x3,%esi
  1014ff:	89 75 d0             	mov    %esi,-0x30(%ebp)
  101502:	e9 1f fd ff ff       	jmp    101226 <qlz_compress+0x136>
  101507:	89 4d d0             	mov    %ecx,-0x30(%ebp)
  10150a:	8b 4d c0             	mov    -0x40(%ebp),%ecx
  10150d:	8b 5d bc             	mov    -0x44(%ebp),%ebx
  101510:	85 c9                	test   %ecx,%ecx
  101512:	75 13                	jne    101527 <qlz_compress+0x437>
  101514:	8b 55 d4             	mov    -0x2c(%ebp),%edx
  101517:	90                   	nop
  101518:	89 d0                	mov    %edx,%eax
  10151a:	d1 ea                	shr    %edx
  10151c:	f6 c2 01             	test   $0x1,%dl
  10151f:	74 f7                	je     101518 <qlz_compress+0x428>
  101521:	c1 e8 02             	shr    $0x2,%eax
  101524:	89 45 cc             	mov    %eax,-0x34(%ebp)
  101527:	8b 45 cc             	mov    -0x34(%ebp),%eax
  10152a:	0d 00 00 00 80       	or     $0x80000000,%eax
  10152f:	89 45 e4             	mov    %eax,-0x1c(%ebp)
  101532:	31 c0                	xor    %eax,%eax
  101534:	8b 55 b0             	mov    -0x50(%ebp),%edx
  101537:	90                   	nop
  101538:	8a 0c 03             	mov    (%ebx,%eax,1),%cl
  10153b:	88 0c 02             	mov    %cl,(%edx,%eax,1)
  10153e:	40                   	inc    %eax
  10153f:	83 f8 04             	cmp    $0x4,%eax
  101542:	75 f4                	jne    101538 <qlz_compress+0x448>
  101544:	8b 45 d0             	mov    -0x30(%ebp),%eax
  101547:	2b 45 98             	sub    -0x68(%ebp),%eax
  10154a:	83 f8 09             	cmp    $0x9,%eax
  10154d:	7d 05                	jge    101554 <qlz_compress+0x464>
  10154f:	b8 09 00 00 00       	mov    $0x9,%eax
  101554:	03 45 94             	add    -0x6c(%ebp),%eax
  101557:	ba 01 00 00 00       	mov    $0x1,%edx
  10155c:	8b 7d 14             	mov    0x14(%ebp),%edi
  10155f:	c7 07 00 00 00 00    	movl   $0x0,(%edi)
  101565:	83 7d 94 03          	cmpl   $0x3,-0x6c(%ebp)
  101569:	74 6a                	je     1015d5 <qlz_compress+0x4e5>
  10156b:	83 ca 02             	or     $0x2,%edx
  10156e:	8b 7d 0c             	mov    0xc(%ebp),%edi
  101571:	88 17                	mov    %dl,(%edi)
  101573:	89 45 e4             	mov    %eax,-0x1c(%ebp)
  101576:	31 d2                	xor    %edx,%edx
  101578:	89 f9                	mov    %edi,%ecx
  10157a:	66 90                	xchg   %ax,%ax
  10157c:	42                   	inc    %edx
  10157d:	8a 5c 15 e3          	mov    -0x1d(%ebp,%edx,1),%bl
  101581:	88 5d d4             	mov    %bl,-0x2c(%ebp)
  101584:	88 1c 11             	mov    %bl,(%ecx,%edx,1)
  101587:	83 fa 04             	cmp    $0x4,%edx
  10158a:	75 f0                	jne    10157c <qlz_compress+0x48c>
  10158c:	8b 7d 10             	mov    0x10(%ebp),%edi
  10158f:	89 7d e4             	mov    %edi,-0x1c(%ebp)
  101592:	31 d2                	xor    %edx,%edx
  101594:	8d 5d e4             	lea    -0x1c(%ebp),%ebx
  101597:	89 c7                	mov    %eax,%edi
  101599:	8b 4d 0c             	mov    0xc(%ebp),%ecx
  10159c:	8a 04 13             	mov    (%ebx,%edx,1),%al
  10159f:	88 44 11 05          	mov    %al,0x5(%ecx,%edx,1)
  1015a3:	42                   	inc    %edx
  1015a4:	83 fa 04             	cmp    $0x4,%edx
  1015a7:	75 f3                	jne    10159c <qlz_compress+0x4ac>
  1015a9:	89 f8                	mov    %edi,%eax
  1015ab:	8b 7d 0c             	mov    0xc(%ebp),%edi
  1015ae:	8a 17                	mov    (%edi),%dl
  1015b0:	83 ca 48             	or     $0x48,%edx
  1015b3:	8b 7d 0c             	mov    0xc(%ebp),%edi
  1015b6:	88 17                	mov    %dl,(%edi)
  1015b8:	83 c4 6c             	add    $0x6c,%esp
  1015bb:	5b                   	pop    %ebx
  1015bc:	5e                   	pop    %esi
  1015bd:	5f                   	pop    %edi
  1015be:	5d                   	pop    %ebp
  1015bf:	c3                   	ret    
  1015c0:	8b 45 8c             	mov    -0x74(%ebp),%eax
  1015c3:	8b 5d a8             	mov    -0x58(%ebp),%ebx
  1015c6:	e9 d0 fe ff ff       	jmp    10149b <qlz_compress+0x3ab>
  1015cb:	31 c0                	xor    %eax,%eax
  1015cd:	83 c4 6c             	add    $0x6c,%esp
  1015d0:	5b                   	pop    %ebx
  1015d1:	5e                   	pop    %esi
  1015d2:	5f                   	pop    %edi
  1015d3:	5d                   	pop    %ebp
  1015d4:	c3                   	ret    
  1015d5:	8b 7d 0c             	mov    0xc(%ebp),%edi
  1015d8:	88 47 01             	mov    %al,0x1(%edi)
  1015db:	8a 4d 10             	mov    0x10(%ebp),%cl
  1015de:	88 4f 02             	mov    %cl,0x2(%edi)
  1015e1:	eb cd                	jmp    1015b0 <qlz_compress+0x4c0>
  1015e3:	8a 48 04             	mov    0x4(%eax),%cl
  1015e6:	ba 04 00 00 00       	mov    $0x4,%edx
  1015eb:	38 4f 04             	cmp    %cl,0x4(%edi)
  1015ee:	0f 85 a6 fc ff ff    	jne    10129a <qlz_compress+0x1aa>
  1015f4:	83 7d a8 04          	cmpl   $0x4,-0x58(%ebp)
  1015f8:	0f 86 9c fc ff ff    	jbe    10129a <qlz_compress+0x1aa>
  1015fe:	8b 5d cc             	mov    -0x34(%ebp),%ebx
  101601:	89 5d c8             	mov    %ebx,-0x38(%ebp)
  101604:	89 d1                	mov    %edx,%ecx
  101606:	42                   	inc    %edx
  101607:	8a 1c 17             	mov    (%edi,%edx,1),%bl
  10160a:	38 1c 10             	cmp    %bl,(%eax,%edx,1)
  10160d:	0f 85 87 fc ff ff    	jne    10129a <qlz_compress+0x1aa>
  101613:	3b 4d c8             	cmp    -0x38(%ebp),%ecx
  101616:	75 ec                	jne    101604 <qlz_compress+0x514>
  101618:	8b 55 a8             	mov    -0x58(%ebp),%edx
  10161b:	e9 7a fc ff ff       	jmp    10129a <qlz_compress+0x1aa>
  101620:	8b 45 08             	mov    0x8(%ebp),%eax
  101623:	85 c0                	test   %eax,%eax
  101625:	74 6a                	je     101691 <qlz_compress+0x5a1>
  101627:	8b 45 08             	mov    0x8(%ebp),%eax
  10162a:	03 45 10             	add    0x10(%ebp),%eax
  10162d:	8b 55 98             	mov    -0x68(%ebp),%edx
  101630:	39 c2                	cmp    %eax,%edx
  101632:	73 23                	jae    101657 <qlz_compress+0x567>
  101634:	3b 55 08             	cmp    0x8(%ebp),%edx
  101637:	76 1e                	jbe    101657 <qlz_compress+0x567>
  101639:	8b 45 90             	mov    -0x70(%ebp),%eax
  10163c:	8b 4d 08             	mov    0x8(%ebp),%ecx
  10163f:	8a 1c 01             	mov    (%ecx,%eax,1),%bl
  101642:	88 1c 02             	mov    %bl,(%edx,%eax,1)
  101645:	83 e8 01             	sub    $0x1,%eax
  101648:	73 f5                	jae    10163f <qlz_compress+0x54f>
  10164a:	8b 45 94             	mov    -0x6c(%ebp),%eax
  10164d:	03 45 10             	add    0x10(%ebp),%eax
  101650:	31 d2                	xor    %edx,%edx
  101652:	e9 05 ff ff ff       	jmp    10155c <qlz_compress+0x46c>
  101657:	8b 7d 98             	mov    -0x68(%ebp),%edi
  10165a:	8b 75 08             	mov    0x8(%ebp),%esi
  10165d:	8d 76 00             	lea    0x0(%esi),%esi
  101660:	a4                   	movsb  %ds:(%esi),%es:(%edi)
  101661:	39 f0                	cmp    %esi,%eax
  101663:	75 fb                	jne    101660 <qlz_compress+0x570>
  101665:	eb e3                	jmp    10164a <qlz_compress+0x55a>
  101667:	8b 45 88             	mov    -0x78(%ebp),%eax
  10166a:	39 45 08             	cmp    %eax,0x8(%ebp)
  10166d:	8b 45 98             	mov    -0x68(%ebp),%eax
  101670:	89 45 b0             	mov    %eax,-0x50(%ebp)
  101673:	77 0f                	ja     101684 <qlz_compress+0x594>
  101675:	8b 7d 08             	mov    0x8(%ebp),%edi
  101678:	c7 45 d4 00 00 00 80 	movl   $0x80000000,-0x2c(%ebp)
  10167f:	e9 d6 fc ff ff       	jmp    10135a <qlz_compress+0x26a>
  101684:	ba 00 00 00 80       	mov    $0x80000000,%edx
  101689:	8d 5d e4             	lea    -0x1c(%ebp),%ebx
  10168c:	e9 87 fe ff ff       	jmp    101518 <qlz_compress+0x428>
  101691:	e8 36 fa ff ff       	call   1010cc <bench_memcpy.part.0>
  101696:	66 90                	xchg   %ax,%ax

00101698 <bench_lzip_prepare>:
  101698:	55                   	push   %ebp
  101699:	89 e5                	mov    %esp,%ebp
  10169b:	56                   	push   %esi
  10169c:	53                   	push   %ebx
  10169d:	a1 fc 57 10 00       	mov    0x1057fc,%eax
  1016a2:	8b 00                	mov    (%eax),%eax
  1016a4:	a3 14 58 10 00       	mov    %eax,0x105814
  1016a9:	83 ec 0c             	sub    $0xc,%esp
  1016ac:	6a 01                	push   $0x1
  1016ae:	e8 59 f9 ff ff       	call   10100c <bench_srand>
  1016b3:	c7 04 24 04 88 00 00 	movl   $0x8804,(%esp)
  1016ba:	e8 c9 f8 ff ff       	call   100f88 <bench_alloc>
  1016bf:	a3 10 58 10 00       	mov    %eax,0x105810
  1016c4:	58                   	pop    %eax
  1016c5:	ff 35 14 58 10 00    	pushl  0x105814
  1016cb:	e8 b8 f8 ff ff       	call   100f88 <bench_alloc>
  1016d0:	a3 0c 58 10 00       	mov    %eax,0x10580c
  1016d5:	a1 14 58 10 00       	mov    0x105814,%eax
  1016da:	05 90 01 00 00       	add    $0x190,%eax
  1016df:	89 04 24             	mov    %eax,(%esp)
  1016e2:	e8 a1 f8 ff ff       	call   100f88 <bench_alloc>
  1016e7:	a3 08 58 10 00       	mov    %eax,0x105808
  1016ec:	83 c4 10             	add    $0x10,%esp
  1016ef:	8b 15 14 58 10 00    	mov    0x105814,%edx
  1016f5:	85 d2                	test   %edx,%edx
  1016f7:	7e 24                	jle    10171d <bench_lzip_prepare+0x85>
  1016f9:	31 db                	xor    %ebx,%ebx
  1016fb:	be 1a 00 00 00       	mov    $0x1a,%esi
  101700:	e8 1b f9 ff ff       	call   101020 <bench_rand>
  101705:	31 d2                	xor    %edx,%edx
  101707:	f7 f6                	div    %esi
  101709:	83 c2 61             	add    $0x61,%edx
  10170c:	a1 0c 58 10 00       	mov    0x10580c,%eax
  101711:	88 14 18             	mov    %dl,(%eax,%ebx,1)
  101714:	43                   	inc    %ebx
  101715:	39 1d 14 58 10 00    	cmp    %ebx,0x105814
  10171b:	7f e3                	jg     101700 <bench_lzip_prepare+0x68>
  10171d:	8d 65 f8             	lea    -0x8(%ebp),%esp
  101720:	5b                   	pop    %ebx
  101721:	5e                   	pop    %esi
  101722:	5d                   	pop    %ebp
  101723:	c3                   	ret    

00101724 <bench_lzip_run>:
  101724:	55                   	push   %ebp
  101725:	89 e5                	mov    %esp,%ebp
  101727:	83 ec 08             	sub    $0x8,%esp
  10172a:	ff 35 10 58 10 00    	pushl  0x105810
  101730:	ff 35 14 58 10 00    	pushl  0x105814
  101736:	ff 35 08 58 10 00    	pushl  0x105808
  10173c:	ff 35 0c 58 10 00    	pushl  0x10580c
  101742:	e8 a9 f9 ff ff       	call   1010f0 <qlz_compress>
  101747:	a3 04 58 10 00       	mov    %eax,0x105804
  10174c:	83 c4 10             	add    $0x10,%esp
  10174f:	c9                   	leave  
  101750:	c3                   	ret    
  101751:	66 90                	xchg   %ax,%ax
  101753:	90                   	nop

00101754 <bench_lzip_validate>:
  101754:	55                   	push   %ebp
  101755:	89 e5                	mov    %esp,%ebp
  101757:	83 ec 10             	sub    $0x10,%esp
  10175a:	a1 08 58 10 00       	mov    0x105808,%eax
  10175f:	8b 15 04 58 10 00    	mov    0x105804,%edx
  101765:	01 c2                	add    %eax,%edx
  101767:	52                   	push   %edx
  101768:	50                   	push   %eax
  101769:	e8 e2 f8 ff ff       	call   101050 <checksum>
  10176e:	83 c4 10             	add    $0x10,%esp
  101771:	8b 15 fc 57 10 00    	mov    0x1057fc,%edx
  101777:	39 42 0c             	cmp    %eax,0xc(%edx)
  10177a:	0f 94 c0             	sete   %al
  10177d:	0f b6 c0             	movzbl %al,%eax
  101780:	c9                   	leave  
  101781:	c3                   	ret    
  101782:	66 90                	xchg   %ax,%ax

00101784 <_ZNK14Updatable_heapI8N_puzzleILi4EEE7pointerERKS1_.isra.0>:
  101784:	55                   	push   %ebp
  101785:	89 e5                	mov    %esp,%ebp
  101787:	57                   	push   %edi
  101788:	56                   	push   %esi
  101789:	53                   	push   %ebx
  10178a:	83 ec 08             	sub    $0x8,%esp
  10178d:	89 cf                	mov    %ecx,%edi
  10178f:	8a 19                	mov    (%ecx),%bl
  101791:	88 5d ef             	mov    %bl,-0x11(%ebp)
  101794:	84 db                	test   %bl,%bl
  101796:	74 07                	je     10179f <_ZNK14Updatable_heapI8N_puzzleILi4EEE7pointerERKS1_.isra.0+0x1b>
  101798:	48                   	dec    %eax
  101799:	23 41 14             	and    0x14(%ecx),%eax
  10179c:	8d 14 82             	lea    (%edx,%eax,4),%edx
  10179f:	8b 12                	mov    (%edx),%edx
  1017a1:	85 d2                	test   %edx,%edx
  1017a3:	74 3f                	je     1017e4 <_ZNK14Updatable_heapI8N_puzzleILi4EEE7pointerERKS1_.isra.0+0x60>
  1017a5:	8d 76 00             	lea    0x0(%esi),%esi
  1017a8:	80 3a 00             	cmpb   $0x0,(%edx)
  1017ab:	74 47                	je     1017f4 <_ZNK14Updatable_heapI8N_puzzleILi4EEE7pointerERKS1_.isra.0+0x70>
  1017ad:	80 7d ef 00          	cmpb   $0x0,-0x11(%ebp)
  1017b1:	74 41                	je     1017f4 <_ZNK14Updatable_heapI8N_puzzleILi4EEE7pointerERKS1_.isra.0+0x70>
  1017b3:	8b 47 14             	mov    0x14(%edi),%eax
  1017b6:	39 42 14             	cmp    %eax,0x14(%edx)
  1017b9:	75 39                	jne    1017f4 <_ZNK14Updatable_heapI8N_puzzleILi4EEE7pointerERKS1_.isra.0+0x70>
  1017bb:	89 d1                	mov    %edx,%ecx
  1017bd:	89 fb                	mov    %edi,%ebx
  1017bf:	8d 72 10             	lea    0x10(%edx),%esi
  1017c2:	31 c0                	xor    %eax,%eax
  1017c4:	89 55 f0             	mov    %edx,-0x10(%ebp)
  1017c7:	8a 54 03 04          	mov    0x4(%ebx,%eax,1),%dl
  1017cb:	38 54 01 04          	cmp    %dl,0x4(%ecx,%eax,1)
  1017cf:	75 1f                	jne    1017f0 <_ZNK14Updatable_heapI8N_puzzleILi4EEE7pointerERKS1_.isra.0+0x6c>
  1017d1:	40                   	inc    %eax
  1017d2:	83 f8 04             	cmp    $0x4,%eax
  1017d5:	75 f0                	jne    1017c7 <_ZNK14Updatable_heapI8N_puzzleILi4EEE7pointerERKS1_.isra.0+0x43>
  1017d7:	8b 55 f0             	mov    -0x10(%ebp),%edx
  1017da:	83 c1 04             	add    $0x4,%ecx
  1017dd:	83 c3 04             	add    $0x4,%ebx
  1017e0:	39 f1                	cmp    %esi,%ecx
  1017e2:	75 de                	jne    1017c2 <_ZNK14Updatable_heapI8N_puzzleILi4EEE7pointerERKS1_.isra.0+0x3e>
  1017e4:	89 d0                	mov    %edx,%eax
  1017e6:	83 c4 08             	add    $0x8,%esp
  1017e9:	5b                   	pop    %ebx
  1017ea:	5e                   	pop    %esi
  1017eb:	5f                   	pop    %edi
  1017ec:	5d                   	pop    %ebp
  1017ed:	c3                   	ret    
  1017ee:	66 90                	xchg   %ax,%ax
  1017f0:	8b 55 f0             	mov    -0x10(%ebp),%edx
  1017f3:	90                   	nop
  1017f4:	8b 52 18             	mov    0x18(%edx),%edx
  1017f7:	85 d2                	test   %edx,%edx
  1017f9:	75 ad                	jne    1017a8 <_ZNK14Updatable_heapI8N_puzzleILi4EEE7pointerERKS1_.isra.0+0x24>
  1017fb:	89 d0                	mov    %edx,%eax
  1017fd:	83 c4 08             	add    $0x8,%esp
  101800:	5b                   	pop    %ebx
  101801:	5e                   	pop    %esi
  101802:	5f                   	pop    %edi
  101803:	5d                   	pop    %ebp
  101804:	c3                   	ret    
  101805:	66 90                	xchg   %ax,%ax
  101807:	90                   	nop

00101808 <bench_15pz_prepare>:
  101808:	c3                   	ret    
  101809:	66 90                	xchg   %ax,%ax
  10180b:	90                   	nop

0010180c <bench_15pz_validate>:
  10180c:	a1 fc 57 10 00       	mov    0x1057fc,%eax
  101811:	8b 15 18 58 10 00    	mov    0x105818,%edx
  101817:	39 50 0c             	cmp    %edx,0xc(%eax)
  10181a:	0f 94 c0             	sete   %al
  10181d:	0f b6 c0             	movzbl %al,%eax
  101820:	c3                   	ret    
  101821:	66 90                	xchg   %ax,%ax
  101823:	90                   	nop

00101824 <_ZN8N_puzzleILi4EEC1Ev>:
  101824:	55                   	push   %ebp
  101825:	89 e5                	mov    %esp,%ebp
  101827:	57                   	push   %edi
  101828:	56                   	push   %esi
  101829:	53                   	push   %ebx
  10182a:	83 ec 5c             	sub    $0x5c,%esp
  10182d:	8b 45 08             	mov    0x8(%ebp),%eax
  101830:	c6 00 01             	movb   $0x1,(%eax)
  101833:	c6 40 03 00          	movb   $0x0,0x3(%eax)
  101837:	31 c0                	xor    %eax,%eax
  101839:	8d 76 00             	lea    0x0(%esi),%esi
  10183c:	89 44 85 a8          	mov    %eax,-0x58(%ebp,%eax,4)
  101840:	40                   	inc    %eax
  101841:	83 f8 10             	cmp    $0x10,%eax
  101844:	75 f6                	jne    10183c <_ZN8N_puzzleILi4EEC1Ev+0x18>
  101846:	8b 45 08             	mov    0x8(%ebp),%eax
  101849:	89 45 98             	mov    %eax,-0x68(%ebp)
  10184c:	89 45 a0             	mov    %eax,-0x60(%ebp)
  10184f:	c7 45 a4 00 00 00 00 	movl   $0x0,-0x5c(%ebp)
  101856:	c7 45 9c 00 00 00 00 	movl   $0x0,-0x64(%ebp)
  10185d:	be 10 00 00 00       	mov    $0x10,%esi
  101862:	2b 75 9c             	sub    -0x64(%ebp),%esi
  101865:	31 db                	xor    %ebx,%ebx
  101867:	e8 b4 f7 ff ff       	call   101020 <bench_rand>
  10186c:	31 d2                	xor    %edx,%edx
  10186e:	f7 f6                	div    %esi
  101870:	8b 7c 95 a8          	mov    -0x58(%ebp,%edx,4),%edi
  101874:	8b 4d a0             	mov    -0x60(%ebp),%ecx
  101877:	89 f8                	mov    %edi,%eax
  101879:	88 44 19 04          	mov    %al,0x4(%ecx,%ebx,1)
  10187d:	85 ff                	test   %edi,%edi
  10187f:	75 7b                	jne    1018fc <_ZN8N_puzzleILi4EEC1Ev+0xd8>
  101881:	8b 7d 08             	mov    0x8(%ebp),%edi
  101884:	8a 45 a4             	mov    -0x5c(%ebp),%al
  101887:	88 47 01             	mov    %al,0x1(%edi)
  10188a:	88 5f 02             	mov    %bl,0x2(%edi)
  10188d:	8b 44 b5 a4          	mov    -0x5c(%ebp,%esi,4),%eax
  101891:	89 44 95 a8          	mov    %eax,-0x58(%ebp,%edx,4)
  101895:	43                   	inc    %ebx
  101896:	4e                   	dec    %esi
  101897:	83 fb 04             	cmp    $0x4,%ebx
  10189a:	75 cb                	jne    101867 <_ZN8N_puzzleILi4EEC1Ev+0x43>
  10189c:	83 45 9c 04          	addl   $0x4,-0x64(%ebp)
  1018a0:	8b 45 9c             	mov    -0x64(%ebp),%eax
  1018a3:	ff 45 a4             	incl   -0x5c(%ebp)
  1018a6:	83 45 a0 04          	addl   $0x4,-0x60(%ebp)
  1018aa:	83 f8 10             	cmp    $0x10,%eax
  1018ad:	75 ae                	jne    10185d <_ZN8N_puzzleILi4EEC1Ev+0x39>
  1018af:	8b 45 08             	mov    0x8(%ebp),%eax
  1018b2:	c7 40 14 00 00 00 00 	movl   $0x0,0x14(%eax)
  1018b9:	8d 58 10             	lea    0x10(%eax),%ebx
  1018bc:	31 c0                	xor    %eax,%eax
  1018be:	8b 75 98             	mov    -0x68(%ebp),%esi
  1018c1:	31 c9                	xor    %ecx,%ecx
  1018c3:	8d 14 00             	lea    (%eax,%eax,1),%edx
  1018c6:	01 c2                	add    %eax,%edx
  1018c8:	8d 14 92             	lea    (%edx,%edx,4),%edx
  1018cb:	8d 14 90             	lea    (%eax,%edx,4),%edx
  1018ce:	01 d2                	add    %edx,%edx
  1018d0:	01 c2                	add    %eax,%edx
  1018d2:	8d 14 90             	lea    (%eax,%edx,4),%edx
  1018d5:	8d 14 90             	lea    (%eax,%edx,4),%edx
  1018d8:	0f be 44 0e 04       	movsbl 0x4(%esi,%ecx,1),%eax
  1018dd:	01 d0                	add    %edx,%eax
  1018df:	41                   	inc    %ecx
  1018e0:	83 f9 04             	cmp    $0x4,%ecx
  1018e3:	75 de                	jne    1018c3 <_ZN8N_puzzleILi4EEC1Ev+0x9f>
  1018e5:	83 c6 04             	add    $0x4,%esi
  1018e8:	39 de                	cmp    %ebx,%esi
  1018ea:	75 d5                	jne    1018c1 <_ZN8N_puzzleILi4EEC1Ev+0x9d>
  1018ec:	8b 5d 08             	mov    0x8(%ebp),%ebx
  1018ef:	89 43 14             	mov    %eax,0x14(%ebx)
  1018f2:	83 c4 5c             	add    $0x5c,%esp
  1018f5:	5b                   	pop    %ebx
  1018f6:	5e                   	pop    %esi
  1018f7:	5f                   	pop    %edi
  1018f8:	5d                   	pop    %ebp
  1018f9:	c3                   	ret    
  1018fa:	66 90                	xchg   %ax,%ax
  1018fc:	8d 47 ff             	lea    -0x1(%edi),%eax
  1018ff:	89 c1                	mov    %eax,%ecx
  101901:	85 c0                	test   %eax,%eax
  101903:	79 03                	jns    101908 <_ZN8N_puzzleILi4EEC1Ev+0xe4>
  101905:	8d 4f 02             	lea    0x2(%edi),%ecx
  101908:	c1 f9 02             	sar    $0x2,%ecx
  10190b:	2b 4d a4             	sub    -0x5c(%ebp),%ecx
  10190e:	79 02                	jns    101912 <_ZN8N_puzzleILi4EEC1Ev+0xee>
  101910:	f7 d9                	neg    %ecx
  101912:	25 03 00 00 80       	and    $0x80000003,%eax
  101917:	79 05                	jns    10191e <_ZN8N_puzzleILi4EEC1Ev+0xfa>
  101919:	48                   	dec    %eax
  10191a:	83 c8 fc             	or     $0xfffffffc,%eax
  10191d:	40                   	inc    %eax
  10191e:	29 d8                	sub    %ebx,%eax
  101920:	79 02                	jns    101924 <_ZN8N_puzzleILi4EEC1Ev+0x100>
  101922:	f7 d8                	neg    %eax
  101924:	01 c8                	add    %ecx,%eax
  101926:	8b 7d 08             	mov    0x8(%ebp),%edi
  101929:	00 47 03             	add    %al,0x3(%edi)
  10192c:	e9 5c ff ff ff       	jmp    10188d <_ZN8N_puzzleILi4EEC1Ev+0x69>
  101931:	66 90                	xchg   %ax,%ax
  101933:	90                   	nop

00101934 <_ZN8N_puzzleILi4EEC1EPi>:
  101934:	55                   	push   %ebp
  101935:	89 e5                	mov    %esp,%ebp
  101937:	57                   	push   %edi
  101938:	56                   	push   %esi
  101939:	53                   	push   %ebx
  10193a:	83 ec 24             	sub    $0x24,%esp
  10193d:	8b 75 08             	mov    0x8(%ebp),%esi
  101940:	c6 06 01             	movb   $0x1,(%esi)
  101943:	c6 46 03 00          	movb   $0x0,0x3(%esi)
  101947:	8d 45 e4             	lea    -0x1c(%ebp),%eax
  10194a:	89 45 d4             	mov    %eax,-0x2c(%ebp)
  10194d:	8d 76 00             	lea    0x0(%esi),%esi
  101950:	c6 00 00             	movb   $0x0,(%eax)
  101953:	40                   	inc    %eax
  101954:	8d 7d f4             	lea    -0xc(%ebp),%edi
  101957:	39 f8                	cmp    %edi,%eax
  101959:	75 f5                	jne    101950 <_ZN8N_puzzleILi4EEC1EPi+0x1c>
  10195b:	8b 45 0c             	mov    0xc(%ebp),%eax
  10195e:	89 45 dc             	mov    %eax,-0x24(%ebp)
  101961:	89 75 d0             	mov    %esi,-0x30(%ebp)
  101964:	8d 46 10             	lea    0x10(%esi),%eax
  101967:	89 45 d8             	mov    %eax,-0x28(%ebp)
  10196a:	89 f7                	mov    %esi,%edi
  10196c:	c7 45 e0 00 00 00 00 	movl   $0x0,-0x20(%ebp)
  101973:	31 c0                	xor    %eax,%eax
  101975:	8b 5d dc             	mov    -0x24(%ebp),%ebx
  101978:	8b 1c 83             	mov    (%ebx,%eax,4),%ebx
  10197b:	88 5c 07 04          	mov    %bl,0x4(%edi,%eax,1)
  10197f:	c6 44 1d e4 01       	movb   $0x1,-0x1c(%ebp,%ebx,1)
  101984:	85 db                	test   %ebx,%ebx
  101986:	75 7c                	jne    101a04 <_ZN8N_puzzleILi4EEC1EPi+0xd0>
  101988:	8a 4d e0             	mov    -0x20(%ebp),%cl
  10198b:	88 4e 01             	mov    %cl,0x1(%esi)
  10198e:	88 46 02             	mov    %al,0x2(%esi)
  101991:	40                   	inc    %eax
  101992:	83 f8 04             	cmp    $0x4,%eax
  101995:	75 de                	jne    101975 <_ZN8N_puzzleILi4EEC1EPi+0x41>
  101997:	ff 45 e0             	incl   -0x20(%ebp)
  10199a:	83 45 dc 10          	addl   $0x10,-0x24(%ebp)
  10199e:	83 c7 04             	add    $0x4,%edi
  1019a1:	3b 7d d8             	cmp    -0x28(%ebp),%edi
  1019a4:	75 cd                	jne    101973 <_ZN8N_puzzleILi4EEC1EPi+0x3f>
  1019a6:	8b 45 d4             	mov    -0x2c(%ebp),%eax
  1019a9:	8d 76 00             	lea    0x0(%esi),%esi
  1019ac:	80 38 00             	cmpb   $0x0,(%eax)
  1019af:	0f 84 83 00 00 00    	je     101a38 <_ZN8N_puzzleILi4EEC1EPi+0x104>
  1019b5:	40                   	inc    %eax
  1019b6:	8d 7d f4             	lea    -0xc(%ebp),%edi
  1019b9:	39 f8                	cmp    %edi,%eax
  1019bb:	75 ef                	jne    1019ac <_ZN8N_puzzleILi4EEC1EPi+0x78>
  1019bd:	c7 46 14 00 00 00 00 	movl   $0x0,0x14(%esi)
  1019c4:	31 c0                	xor    %eax,%eax
  1019c6:	8b 5d d0             	mov    -0x30(%ebp),%ebx
  1019c9:	8b 7d d8             	mov    -0x28(%ebp),%edi
  1019cc:	31 c9                	xor    %ecx,%ecx
  1019ce:	8d 14 00             	lea    (%eax,%eax,1),%edx
  1019d1:	01 c2                	add    %eax,%edx
  1019d3:	8d 14 92             	lea    (%edx,%edx,4),%edx
  1019d6:	8d 14 90             	lea    (%eax,%edx,4),%edx
  1019d9:	01 d2                	add    %edx,%edx
  1019db:	01 c2                	add    %eax,%edx
  1019dd:	8d 14 90             	lea    (%eax,%edx,4),%edx
  1019e0:	8d 14 90             	lea    (%eax,%edx,4),%edx
  1019e3:	0f be 44 0b 04       	movsbl 0x4(%ebx,%ecx,1),%eax
  1019e8:	01 d0                	add    %edx,%eax
  1019ea:	41                   	inc    %ecx
  1019eb:	83 f9 04             	cmp    $0x4,%ecx
  1019ee:	75 de                	jne    1019ce <_ZN8N_puzzleILi4EEC1EPi+0x9a>
  1019f0:	83 c3 04             	add    $0x4,%ebx
  1019f3:	39 fb                	cmp    %edi,%ebx
  1019f5:	75 d5                	jne    1019cc <_ZN8N_puzzleILi4EEC1EPi+0x98>
  1019f7:	89 46 14             	mov    %eax,0x14(%esi)
  1019fa:	83 c4 24             	add    $0x24,%esp
  1019fd:	5b                   	pop    %ebx
  1019fe:	5e                   	pop    %esi
  1019ff:	5f                   	pop    %edi
  101a00:	5d                   	pop    %ebp
  101a01:	c3                   	ret    
  101a02:	66 90                	xchg   %ax,%ax
  101a04:	8d 53 ff             	lea    -0x1(%ebx),%edx
  101a07:	89 d1                	mov    %edx,%ecx
  101a09:	85 d2                	test   %edx,%edx
  101a0b:	79 03                	jns    101a10 <_ZN8N_puzzleILi4EEC1EPi+0xdc>
  101a0d:	8d 4b 02             	lea    0x2(%ebx),%ecx
  101a10:	c1 f9 02             	sar    $0x2,%ecx
  101a13:	2b 4d e0             	sub    -0x20(%ebp),%ecx
  101a16:	79 02                	jns    101a1a <_ZN8N_puzzleILi4EEC1EPi+0xe6>
  101a18:	f7 d9                	neg    %ecx
  101a1a:	81 e2 03 00 00 80    	and    $0x80000003,%edx
  101a20:	79 05                	jns    101a27 <_ZN8N_puzzleILi4EEC1EPi+0xf3>
  101a22:	4a                   	dec    %edx
  101a23:	83 ca fc             	or     $0xfffffffc,%edx
  101a26:	42                   	inc    %edx
  101a27:	29 c2                	sub    %eax,%edx
  101a29:	79 02                	jns    101a2d <_ZN8N_puzzleILi4EEC1EPi+0xf9>
  101a2b:	f7 da                	neg    %edx
  101a2d:	01 ca                	add    %ecx,%edx
  101a2f:	00 56 03             	add    %dl,0x3(%esi)
  101a32:	e9 5a ff ff ff       	jmp    101991 <_ZN8N_puzzleILi4EEC1EPi+0x5d>
  101a37:	90                   	nop
  101a38:	c6 06 00             	movb   $0x0,(%esi)
  101a3b:	83 c4 24             	add    $0x24,%esp
  101a3e:	5b                   	pop    %ebx
  101a3f:	5e                   	pop    %esi
  101a40:	5f                   	pop    %edi
  101a41:	5d                   	pop    %ebp
  101a42:	c3                   	ret    
  101a43:	90                   	nop

00101a44 <_ZNK8N_puzzleILi4EE8solvableEv>:
  101a44:	55                   	push   %ebp
  101a45:	89 e5                	mov    %esp,%ebp
  101a47:	57                   	push   %edi
  101a48:	56                   	push   %esi
  101a49:	53                   	push   %ebx
  101a4a:	83 ec 40             	sub    $0x40,%esp
  101a4d:	8b 75 08             	mov    0x8(%ebp),%esi
  101a50:	8a 06                	mov    (%esi),%al
  101a52:	84 c0                	test   %al,%al
  101a54:	74 7e                	je     101ad4 <_ZNK8N_puzzleILi4EE8solvableEv+0x90>
  101a56:	8d 5d b4             	lea    -0x4c(%ebp),%ebx
  101a59:	89 f1                	mov    %esi,%ecx
  101a5b:	31 ff                	xor    %edi,%edi
  101a5d:	31 c0                	xor    %eax,%eax
  101a5f:	0f be 54 01 04       	movsbl 0x4(%ecx,%eax,1),%edx
  101a64:	84 d2                	test   %dl,%dl
  101a66:	75 4c                	jne    101ab4 <_ZNK8N_puzzleILi4EE8solvableEv+0x70>
  101a68:	c7 04 83 10 00 00 00 	movl   $0x10,(%ebx,%eax,4)
  101a6f:	40                   	inc    %eax
  101a70:	83 f8 04             	cmp    $0x4,%eax
  101a73:	75 ea                	jne    101a5f <_ZNK8N_puzzleILi4EE8solvableEv+0x1b>
  101a75:	83 c3 10             	add    $0x10,%ebx
  101a78:	83 c1 04             	add    $0x4,%ecx
  101a7b:	83 c7 04             	add    $0x4,%edi
  101a7e:	83 ff 10             	cmp    $0x10,%edi
  101a81:	75 da                	jne    101a5d <_ZNK8N_puzzleILi4EE8solvableEv+0x19>
  101a83:	8b 55 b4             	mov    -0x4c(%ebp),%edx
  101a86:	bb 01 00 00 00       	mov    $0x1,%ebx
  101a8b:	b8 01 00 00 00       	mov    $0x1,%eax
  101a90:	31 c9                	xor    %ecx,%ecx
  101a92:	66 90                	xchg   %ax,%ax
  101a94:	39 54 85 b4          	cmp    %edx,-0x4c(%ebp,%eax,4)
  101a98:	7d 01                	jge    101a9b <_ZNK8N_puzzleILi4EE8solvableEv+0x57>
  101a9a:	41                   	inc    %ecx
  101a9b:	40                   	inc    %eax
  101a9c:	83 f8 10             	cmp    $0x10,%eax
  101a9f:	75 f3                	jne    101a94 <_ZNK8N_puzzleILi4EE8solvableEv+0x50>
  101aa1:	8d 43 01             	lea    0x1(%ebx),%eax
  101aa4:	83 fb 0f             	cmp    $0xf,%ebx
  101aa7:	74 13                	je     101abc <_ZNK8N_puzzleILi4EE8solvableEv+0x78>
  101aa9:	8b 54 9d b4          	mov    -0x4c(%ebp,%ebx,4),%edx
  101aad:	89 c3                	mov    %eax,%ebx
  101aaf:	eb e3                	jmp    101a94 <_ZNK8N_puzzleILi4EE8solvableEv+0x50>
  101ab1:	8d 76 00             	lea    0x0(%esi),%esi
  101ab4:	89 14 83             	mov    %edx,(%ebx,%eax,4)
  101ab7:	eb b6                	jmp    101a6f <_ZNK8N_puzzleILi4EE8solvableEv+0x2b>
  101ab9:	8d 76 00             	lea    0x0(%esi),%esi
  101abc:	0f b6 56 01          	movzbl 0x1(%esi),%edx
  101ac0:	b8 06 00 00 00       	mov    $0x6,%eax
  101ac5:	29 d0                	sub    %edx,%eax
  101ac7:	0f b6 56 02          	movzbl 0x2(%esi),%edx
  101acb:	29 d0                	sub    %edx,%eax
  101acd:	01 c8                	add    %ecx,%eax
  101acf:	f7 d0                	not    %eax
  101ad1:	83 e0 01             	and    $0x1,%eax
  101ad4:	83 c4 40             	add    $0x40,%esp
  101ad7:	5b                   	pop    %ebx
  101ad8:	5e                   	pop    %esi
  101ad9:	5f                   	pop    %edi
  101ada:	5d                   	pop    %ebp
  101adb:	c3                   	ret    

00101adc <_ZN14Updatable_heapI8N_puzzleILi4EEE12percolate_upEi>:
  101adc:	55                   	push   %ebp
  101add:	89 e5                	mov    %esp,%ebp
  101adf:	57                   	push   %edi
  101ae0:	56                   	push   %esi
  101ae1:	53                   	push   %ebx
  101ae2:	83 ec 08             	sub    $0x8,%esp
  101ae5:	8b 45 0c             	mov    0xc(%ebp),%eax
  101ae8:	83 f8 01             	cmp    $0x1,%eax
  101aeb:	74 42                	je     101b2f <_ZN14Updatable_heapI8N_puzzleILi4EEE12percolate_upEi+0x53>
  101aed:	8b 55 08             	mov    0x8(%ebp),%edx
  101af0:	8b 72 08             	mov    0x8(%edx),%esi
  101af3:	89 75 ec             	mov    %esi,-0x14(%ebp)
  101af6:	8b 0c 86             	mov    (%esi,%eax,4),%ecx
  101af9:	eb 15                	jmp    101b10 <_ZN14Updatable_heapI8N_puzzleILi4EEE12percolate_upEi+0x34>
  101afb:	90                   	nop
  101afc:	8b 7d f0             	mov    -0x10(%ebp),%edi
  101aff:	89 37                	mov    %esi,(%edi)
  101b01:	89 0b                	mov    %ecx,(%ebx)
  101b03:	89 41 1c             	mov    %eax,0x1c(%ecx)
  101b06:	8b 1f                	mov    (%edi),%ebx
  101b08:	89 53 1c             	mov    %edx,0x1c(%ebx)
  101b0b:	83 f8 01             	cmp    $0x1,%eax
  101b0e:	74 1f                	je     101b2f <_ZN14Updatable_heapI8N_puzzleILi4EEE12percolate_upEi+0x53>
  101b10:	89 c2                	mov    %eax,%edx
  101b12:	c1 e8 1f             	shr    $0x1f,%eax
  101b15:	01 d0                	add    %edx,%eax
  101b17:	d1 f8                	sar    %eax
  101b19:	8b 7d ec             	mov    -0x14(%ebp),%edi
  101b1c:	8d 1c 87             	lea    (%edi,%eax,4),%ebx
  101b1f:	8b 33                	mov    (%ebx),%esi
  101b21:	8d 3c 97             	lea    (%edi,%edx,4),%edi
  101b24:	89 7d f0             	mov    %edi,-0x10(%ebp)
  101b27:	8b 79 24             	mov    0x24(%ecx),%edi
  101b2a:	39 7e 24             	cmp    %edi,0x24(%esi)
  101b2d:	7f cd                	jg     101afc <_ZN14Updatable_heapI8N_puzzleILi4EEE12percolate_upEi+0x20>
  101b2f:	83 c4 08             	add    $0x8,%esp
  101b32:	5b                   	pop    %ebx
  101b33:	5e                   	pop    %esi
  101b34:	5f                   	pop    %edi
  101b35:	5d                   	pop    %ebp
  101b36:	c3                   	ret    
  101b37:	90                   	nop

00101b38 <_ZN14Updatable_heapI8N_puzzleILi4EEE4pushERKS1_i>:
  101b38:	55                   	push   %ebp
  101b39:	89 e5                	mov    %esp,%ebp
  101b3b:	57                   	push   %edi
  101b3c:	56                   	push   %esi
  101b3d:	53                   	push   %ebx
  101b3e:	83 ec 1c             	sub    $0x1c,%esp
  101b41:	8b 75 08             	mov    0x8(%ebp),%esi
  101b44:	8b 5d 0c             	mov    0xc(%ebp),%ebx
  101b47:	8b 45 10             	mov    0x10(%ebp),%eax
  101b4a:	89 45 e4             	mov    %eax,-0x1c(%ebp)
  101b4d:	8b 3e                	mov    (%esi),%edi
  101b4f:	8b 56 04             	mov    0x4(%esi),%edx
  101b52:	89 d9                	mov    %ebx,%ecx
  101b54:	89 f8                	mov    %edi,%eax
  101b56:	e8 29 fc ff ff       	call   101784 <_ZNK14Updatable_heapI8N_puzzleILi4EEE7pointerERKS1_.isra.0>
  101b5b:	85 c0                	test   %eax,%eax
  101b5d:	74 29                	je     101b88 <_ZN14Updatable_heapI8N_puzzleILi4EEE4pushERKS1_i+0x50>
  101b5f:	80 78 28 00          	cmpb   $0x0,0x28(%eax)
  101b63:	75 19                	jne    101b7e <_ZN14Updatable_heapI8N_puzzleILi4EEE4pushERKS1_i+0x46>
  101b65:	80 38 00             	cmpb   $0x0,(%eax)
  101b68:	0f 84 36 01 00 00    	je     101ca4 <_ZN14Updatable_heapI8N_puzzleILi4EEE4pushERKS1_i+0x16c>
  101b6e:	0f be 50 03          	movsbl 0x3(%eax),%edx
  101b72:	03 55 e4             	add    -0x1c(%ebp),%edx
  101b75:	3b 50 24             	cmp    0x24(%eax),%edx
  101b78:	0f 8c 0a 01 00 00    	jl     101c88 <_ZN14Updatable_heapI8N_puzzleILi4EEE4pushERKS1_i+0x150>
  101b7e:	8d 65 f4             	lea    -0xc(%ebp),%esp
  101b81:	5b                   	pop    %ebx
  101b82:	5e                   	pop    %esi
  101b83:	5f                   	pop    %edi
  101b84:	5d                   	pop    %ebp
  101b85:	c3                   	ret    
  101b86:	66 90                	xchg   %ax,%ax
  101b88:	8b 46 0c             	mov    0xc(%esi),%eax
  101b8b:	39 f8                	cmp    %edi,%eax
  101b8d:	0f 8f 1b 01 00 00    	jg     101cae <_ZN14Updatable_heapI8N_puzzleILi4EEE4pushERKS1_i+0x176>
  101b93:	40                   	inc    %eax
  101b94:	89 46 0c             	mov    %eax,0xc(%esi)
  101b97:	83 ec 0c             	sub    $0xc,%esp
  101b9a:	6a 30                	push   $0x30
  101b9c:	e8 e7 f3 ff ff       	call   100f88 <bench_alloc>
  101ba1:	8b 7e 0c             	mov    0xc(%esi),%edi
  101ba4:	89 7d dc             	mov    %edi,-0x24(%ebp)
  101ba7:	8b 4e 04             	mov    0x4(%esi),%ecx
  101baa:	8a 13                	mov    (%ebx),%dl
  101bac:	88 55 e3             	mov    %dl,-0x1d(%ebp)
  101baf:	83 c4 10             	add    $0x10,%esp
  101bb2:	84 d2                	test   %dl,%dl
  101bb4:	0f 85 c6 00 00 00    	jne    101c80 <_ZN14Updatable_heapI8N_puzzleILi4EEE4pushERKS1_i+0x148>
  101bba:	31 ff                	xor    %edi,%edi
  101bbc:	8b 16                	mov    (%esi),%edx
  101bbe:	4a                   	dec    %edx
  101bbf:	21 fa                	and    %edi,%edx
  101bc1:	8b 3c 91             	mov    (%ecx,%edx,4),%edi
  101bc4:	8a 4d e3             	mov    -0x1d(%ebp),%cl
  101bc7:	88 08                	mov    %cl,(%eax)
  101bc9:	8a 4b 01             	mov    0x1(%ebx),%cl
  101bcc:	88 48 01             	mov    %cl,0x1(%eax)
  101bcf:	8a 4b 02             	mov    0x2(%ebx),%cl
  101bd2:	88 48 02             	mov    %cl,0x2(%eax)
  101bd5:	8a 53 03             	mov    0x3(%ebx),%dl
  101bd8:	88 50 03             	mov    %dl,0x3(%eax)
  101bdb:	8b 4b 14             	mov    0x14(%ebx),%ecx
  101bde:	89 48 14             	mov    %ecx,0x14(%eax)
  101be1:	31 c9                	xor    %ecx,%ecx
  101be3:	88 55 e2             	mov    %dl,-0x1e(%ebp)
  101be6:	8a 54 8b 04          	mov    0x4(%ebx,%ecx,4),%dl
  101bea:	88 54 88 04          	mov    %dl,0x4(%eax,%ecx,4)
  101bee:	8a 54 8b 05          	mov    0x5(%ebx,%ecx,4),%dl
  101bf2:	88 54 88 05          	mov    %dl,0x5(%eax,%ecx,4)
  101bf6:	8a 54 8b 06          	mov    0x6(%ebx,%ecx,4),%dl
  101bfa:	88 54 88 06          	mov    %dl,0x6(%eax,%ecx,4)
  101bfe:	8a 54 8b 07          	mov    0x7(%ebx,%ecx,4),%dl
  101c02:	88 54 88 07          	mov    %dl,0x7(%eax,%ecx,4)
  101c06:	41                   	inc    %ecx
  101c07:	83 f9 04             	cmp    $0x4,%ecx
  101c0a:	75 da                	jne    101be6 <_ZN14Updatable_heapI8N_puzzleILi4EEE4pushERKS1_i+0xae>
  101c0c:	0f be 55 e2          	movsbl -0x1e(%ebp),%edx
  101c10:	89 78 18             	mov    %edi,0x18(%eax)
  101c13:	8b 7d dc             	mov    -0x24(%ebp),%edi
  101c16:	89 78 1c             	mov    %edi,0x1c(%eax)
  101c19:	8b 7d e4             	mov    -0x1c(%ebp),%edi
  101c1c:	89 78 20             	mov    %edi,0x20(%eax)
  101c1f:	80 7d e3 00          	cmpb   $0x0,-0x1d(%ebp)
  101c23:	75 05                	jne    101c2a <_ZN14Updatable_heapI8N_puzzleILi4EEE4pushERKS1_i+0xf2>
  101c25:	ba 40 00 00 00       	mov    $0x40,%edx
  101c2a:	03 55 e4             	add    -0x1c(%ebp),%edx
  101c2d:	89 50 24             	mov    %edx,0x24(%eax)
  101c30:	c6 40 28 00          	movb   $0x0,0x28(%eax)
  101c34:	c7 40 2c 00 00 00 00 	movl   $0x0,0x2c(%eax)
  101c3b:	8b 4e 04             	mov    0x4(%esi),%ecx
  101c3e:	80 3b 00             	cmpb   $0x0,(%ebx)
  101c41:	74 5d                	je     101ca0 <_ZN14Updatable_heapI8N_puzzleILi4EEE4pushERKS1_i+0x168>
  101c43:	8b 5b 14             	mov    0x14(%ebx),%ebx
  101c46:	8b 3e                	mov    (%esi),%edi
  101c48:	8d 57 ff             	lea    -0x1(%edi),%edx
  101c4b:	21 da                	and    %ebx,%edx
  101c4d:	89 04 91             	mov    %eax,(%ecx,%edx,4)
  101c50:	8b 56 0c             	mov    0xc(%esi),%edx
  101c53:	8b 4e 08             	mov    0x8(%esi),%ecx
  101c56:	89 04 91             	mov    %eax,(%ecx,%edx,4)
  101c59:	83 ec 08             	sub    $0x8,%esp
  101c5c:	52                   	push   %edx
  101c5d:	56                   	push   %esi
  101c5e:	e8 79 fe ff ff       	call   101adc <_ZN14Updatable_heapI8N_puzzleILi4EEE12percolate_upEi>
  101c63:	8b 56 0c             	mov    0xc(%esi),%edx
  101c66:	8b 46 10             	mov    0x10(%esi),%eax
  101c69:	83 c4 10             	add    $0x10,%esp
  101c6c:	39 d0                	cmp    %edx,%eax
  101c6e:	7d 02                	jge    101c72 <_ZN14Updatable_heapI8N_puzzleILi4EEE4pushERKS1_i+0x13a>
  101c70:	89 d0                	mov    %edx,%eax
  101c72:	89 46 10             	mov    %eax,0x10(%esi)
  101c75:	8d 65 f4             	lea    -0xc(%ebp),%esp
  101c78:	5b                   	pop    %ebx
  101c79:	5e                   	pop    %esi
  101c7a:	5f                   	pop    %edi
  101c7b:	5d                   	pop    %ebp
  101c7c:	c3                   	ret    
  101c7d:	8d 76 00             	lea    0x0(%esi),%esi
  101c80:	8b 7b 14             	mov    0x14(%ebx),%edi
  101c83:	e9 34 ff ff ff       	jmp    101bbc <_ZN14Updatable_heapI8N_puzzleILi4EEE4pushERKS1_i+0x84>
  101c88:	89 50 24             	mov    %edx,0x24(%eax)
  101c8b:	8b 40 1c             	mov    0x1c(%eax),%eax
  101c8e:	89 45 0c             	mov    %eax,0xc(%ebp)
  101c91:	89 75 08             	mov    %esi,0x8(%ebp)
  101c94:	8d 65 f4             	lea    -0xc(%ebp),%esp
  101c97:	5b                   	pop    %ebx
  101c98:	5e                   	pop    %esi
  101c99:	5f                   	pop    %edi
  101c9a:	5d                   	pop    %ebp
  101c9b:	e9 3c fe ff ff       	jmp    101adc <_ZN14Updatable_heapI8N_puzzleILi4EEE12percolate_upEi>
  101ca0:	31 db                	xor    %ebx,%ebx
  101ca2:	eb a2                	jmp    101c46 <_ZN14Updatable_heapI8N_puzzleILi4EEE4pushERKS1_i+0x10e>
  101ca4:	ba 40 00 00 00       	mov    $0x40,%edx
  101ca9:	e9 c4 fe ff ff       	jmp    101b72 <_ZN14Updatable_heapI8N_puzzleILi4EEE4pushERKS1_i+0x3a>
  101cae:	50                   	push   %eax
  101caf:	68 98 00 00 00       	push   $0x98
  101cb4:	68 c0 4d 10 00       	push   $0x104dc0
  101cb9:	68 7b 4c 10 00       	push   $0x104c7b
  101cbe:	e8 29 2a 00 00       	call   1046ec <printf>
  101cc3:	c7 04 24 01 00 00 00 	movl   $0x1,(%esp)
  101cca:	e8 71 23 00 00       	call   104040 <halt>
  101ccf:	90                   	nop

00101cd0 <_ZN14Updatable_heapI8N_puzzleILi4EEE14percolate_downEv>:
  101cd0:	55                   	push   %ebp
  101cd1:	89 e5                	mov    %esp,%ebp
  101cd3:	57                   	push   %edi
  101cd4:	56                   	push   %esi
  101cd5:	53                   	push   %ebx
  101cd6:	83 ec 08             	sub    $0x8,%esp
  101cd9:	8b 45 08             	mov    0x8(%ebp),%eax
  101cdc:	8b 50 0c             	mov    0xc(%eax),%edx
  101cdf:	83 fa 02             	cmp    $0x2,%edx
  101ce2:	0f 8e cf 00 00 00    	jle    101db7 <_ZN14Updatable_heapI8N_puzzleILi4EEE14percolate_downEv+0xe7>
  101ce8:	8b 48 08             	mov    0x8(%eax),%ecx
  101ceb:	b8 01 00 00 00       	mov    $0x1,%eax
  101cf0:	bf 02 00 00 00       	mov    $0x2,%edi
  101cf5:	89 4d f0             	mov    %ecx,-0x10(%ebp)
  101cf8:	eb 30                	jmp    101d2a <_ZN14Updatable_heapI8N_puzzleILi4EEE14percolate_downEv+0x5a>
  101cfa:	66 90                	xchg   %ax,%ax
  101cfc:	39 ce                	cmp    %ecx,%esi
  101cfe:	7c 7e                	jl     101d7e <_ZN14Updatable_heapI8N_puzzleILi4EEE14percolate_downEv+0xae>
  101d00:	8d 77 01             	lea    0x1(%edi),%esi
  101d03:	8b 5d f0             	mov    -0x10(%ebp),%ebx
  101d06:	8d 5c bb 04          	lea    0x4(%ebx,%edi,4),%ebx
  101d0a:	8b 3b                	mov    (%ebx),%edi
  101d0c:	8b 4d ec             	mov    -0x14(%ebp),%ecx
  101d0f:	89 0b                	mov    %ecx,(%ebx)
  101d11:	89 3a                	mov    %edi,(%edx)
  101d13:	89 47 1c             	mov    %eax,0x1c(%edi)
  101d16:	8b 03                	mov    (%ebx),%eax
  101d18:	89 70 1c             	mov    %esi,0x1c(%eax)
  101d1b:	89 f0                	mov    %esi,%eax
  101d1d:	8d 3c 00             	lea    (%eax,%eax,1),%edi
  101d20:	8b 4d 08             	mov    0x8(%ebp),%ecx
  101d23:	8b 51 0c             	mov    0xc(%ecx),%edx
  101d26:	39 d7                	cmp    %edx,%edi
  101d28:	7d 50                	jge    101d7a <_ZN14Updatable_heapI8N_puzzleILi4EEE14percolate_downEv+0xaa>
  101d2a:	8d 1c 85 00 00 00 00 	lea    0x0(,%eax,4),%ebx
  101d31:	8b 4d f0             	mov    -0x10(%ebp),%ecx
  101d34:	8d 14 19             	lea    (%ecx,%ebx,1),%edx
  101d37:	8b 32                	mov    (%edx),%esi
  101d39:	89 75 ec             	mov    %esi,-0x14(%ebp)
  101d3c:	8b 76 24             	mov    0x24(%esi),%esi
  101d3f:	8b 1c 1a             	mov    (%edx,%ebx,1),%ebx
  101d42:	8b 5b 24             	mov    0x24(%ebx),%ebx
  101d45:	8b 4c c1 04          	mov    0x4(%ecx,%eax,8),%ecx
  101d49:	8b 49 24             	mov    0x24(%ecx),%ecx
  101d4c:	39 de                	cmp    %ebx,%esi
  101d4e:	7c ac                	jl     101cfc <_ZN14Updatable_heapI8N_puzzleILi4EEE14percolate_downEv+0x2c>
  101d50:	39 cb                	cmp    %ecx,%ebx
  101d52:	7d ac                	jge    101d00 <_ZN14Updatable_heapI8N_puzzleILi4EEE14percolate_downEv+0x30>
  101d54:	8b 5d f0             	mov    -0x10(%ebp),%ebx
  101d57:	8d 1c bb             	lea    (%ebx,%edi,4),%ebx
  101d5a:	8b 33                	mov    (%ebx),%esi
  101d5c:	8b 4d ec             	mov    -0x14(%ebp),%ecx
  101d5f:	89 0b                	mov    %ecx,(%ebx)
  101d61:	89 32                	mov    %esi,(%edx)
  101d63:	89 46 1c             	mov    %eax,0x1c(%esi)
  101d66:	8b 03                	mov    (%ebx),%eax
  101d68:	89 78 1c             	mov    %edi,0x1c(%eax)
  101d6b:	89 f8                	mov    %edi,%eax
  101d6d:	8d 3c 00             	lea    (%eax,%eax,1),%edi
  101d70:	8b 4d 08             	mov    0x8(%ebp),%ecx
  101d73:	8b 51 0c             	mov    0xc(%ecx),%edx
  101d76:	39 d7                	cmp    %edx,%edi
  101d78:	7c b0                	jl     101d2a <_ZN14Updatable_heapI8N_puzzleILi4EEE14percolate_downEv+0x5a>
  101d7a:	39 fa                	cmp    %edi,%edx
  101d7c:	74 0a                	je     101d88 <_ZN14Updatable_heapI8N_puzzleILi4EEE14percolate_downEv+0xb8>
  101d7e:	83 c4 08             	add    $0x8,%esp
  101d81:	5b                   	pop    %ebx
  101d82:	5e                   	pop    %esi
  101d83:	5f                   	pop    %edi
  101d84:	5d                   	pop    %ebp
  101d85:	c3                   	ret    
  101d86:	66 90                	xchg   %ax,%ax
  101d88:	8b 7d 08             	mov    0x8(%ebp),%edi
  101d8b:	8b 4f 08             	mov    0x8(%edi),%ecx
  101d8e:	8d 3c 81             	lea    (%ecx,%eax,4),%edi
  101d91:	89 7d f0             	mov    %edi,-0x10(%ebp)
  101d94:	8b 37                	mov    (%edi),%esi
  101d96:	8b 3c c1             	mov    (%ecx,%eax,8),%edi
  101d99:	8b 5e 24             	mov    0x24(%esi),%ebx
  101d9c:	39 5f 24             	cmp    %ebx,0x24(%edi)
  101d9f:	7d dd                	jge    101d7e <_ZN14Updatable_heapI8N_puzzleILi4EEE14percolate_downEv+0xae>
  101da1:	8d 0c 91             	lea    (%ecx,%edx,4),%ecx
  101da4:	8b 39                	mov    (%ecx),%edi
  101da6:	89 31                	mov    %esi,(%ecx)
  101da8:	8b 5d f0             	mov    -0x10(%ebp),%ebx
  101dab:	89 3b                	mov    %edi,(%ebx)
  101dad:	89 47 1c             	mov    %eax,0x1c(%edi)
  101db0:	8b 01                	mov    (%ecx),%eax
  101db2:	89 50 1c             	mov    %edx,0x1c(%eax)
  101db5:	eb c7                	jmp    101d7e <_ZN14Updatable_heapI8N_puzzleILi4EEE14percolate_downEv+0xae>
  101db7:	b8 01 00 00 00       	mov    $0x1,%eax
  101dbc:	bf 02 00 00 00       	mov    $0x2,%edi
  101dc1:	eb b7                	jmp    101d7a <_ZN14Updatable_heapI8N_puzzleILi4EEE14percolate_downEv+0xaa>
  101dc3:	90                   	nop

00101dc4 <bench_15pz_run>:
  101dc4:	55                   	push   %ebp
  101dc5:	89 e5                	mov    %esp,%ebp
  101dc7:	57                   	push   %edi
  101dc8:	56                   	push   %esi
  101dc9:	53                   	push   %ebx
  101dca:	81 ec d8 00 00 00    	sub    $0xd8,%esp
  101dd0:	8d b5 60 ff ff ff    	lea    -0xa0(%ebp),%esi
  101dd6:	56                   	push   %esi
  101dd7:	e8 48 fa ff ff       	call   101824 <_ZN8N_puzzleILi4EEC1Ev>
  101ddc:	a1 fc 57 10 00       	mov    0x1057fc,%eax
  101de1:	8b 00                	mov    (%eax),%eax
  101de3:	83 c4 10             	add    $0x10,%esp
  101de6:	83 f8 01             	cmp    $0x1,%eax
  101de9:	74 31                	je     101e1c <bench_15pz_run+0x58>
  101deb:	83 f8 02             	cmp    $0x2,%eax
  101dee:	0f 84 36 0a 00 00    	je     10282a <bench_15pz_run+0xa66>
  101df4:	85 c0                	test   %eax,%eax
  101df6:	0f 84 c6 09 00 00    	je     1027c2 <bench_15pz_run+0x9fe>
  101dfc:	50                   	push   %eax
  101dfd:	6a 2b                	push   $0x2b
  101dff:	68 10 4e 10 00       	push   $0x104e10
  101e04:	68 7b 4c 10 00       	push   $0x104c7b
  101e09:	e8 de 28 00 00       	call   1046ec <printf>
  101e0e:	c7 04 24 01 00 00 00 	movl   $0x1,(%esp)
  101e15:	e8 26 22 00 00       	call   104040 <halt>
  101e1a:	66 90                	xchg   %ax,%ax
  101e1c:	83 ec 08             	sub    $0x8,%esp
  101e1f:	68 20 55 10 00       	push   $0x105520
  101e24:	8d 5d a8             	lea    -0x58(%ebp),%ebx
  101e27:	53                   	push   %ebx
  101e28:	e8 07 fb ff ff       	call   101934 <_ZN8N_puzzleILi4EEC1EPi>
  101e2d:	8b 45 a8             	mov    -0x58(%ebp),%eax
  101e30:	89 85 60 ff ff ff    	mov    %eax,-0xa0(%ebp)
  101e36:	8b 45 bc             	mov    -0x44(%ebp),%eax
  101e39:	89 85 74 ff ff ff    	mov    %eax,-0x8c(%ebp)
  101e3f:	89 d8                	mov    %ebx,%eax
  101e41:	89 f2                	mov    %esi,%edx
  101e43:	8d 4d b8             	lea    -0x48(%ebp),%ecx
  101e46:	89 8d 50 ff ff ff    	mov    %ecx,-0xb0(%ebp)
  101e4c:	83 c4 10             	add    $0x10,%esp
  101e4f:	89 df                	mov    %ebx,%edi
  101e51:	8a 58 04             	mov    0x4(%eax),%bl
  101e54:	88 5a 04             	mov    %bl,0x4(%edx)
  101e57:	8a 58 05             	mov    0x5(%eax),%bl
  101e5a:	88 5a 05             	mov    %bl,0x5(%edx)
  101e5d:	8a 58 06             	mov    0x6(%eax),%bl
  101e60:	88 5a 06             	mov    %bl,0x6(%edx)
  101e63:	8a 58 07             	mov    0x7(%eax),%bl
  101e66:	88 5a 07             	mov    %bl,0x7(%edx)
  101e69:	83 c0 04             	add    $0x4,%eax
  101e6c:	83 c2 04             	add    $0x4,%edx
  101e6f:	39 c1                	cmp    %eax,%ecx
  101e71:	75 de                	jne    101e51 <bench_15pz_run+0x8d>
  101e73:	89 fb                	mov    %edi,%ebx
  101e75:	c7 85 38 ff ff ff 00 	movl   $0x800,-0xc8(%ebp)
  101e7c:	08 00 00 
  101e7f:	83 ec 0c             	sub    $0xc,%esp
  101e82:	56                   	push   %esi
  101e83:	e8 bc fb ff ff       	call   101a44 <_ZNK8N_puzzleILi4EE8solvableEv>
  101e88:	83 c4 10             	add    $0x10,%esp
  101e8b:	84 c0                	test   %al,%al
  101e8d:	0f 84 27 0a 00 00    	je     1028ba <bench_15pz_run+0xaf6>
  101e93:	83 ec 0c             	sub    $0xc,%esp
  101e96:	6a 14                	push   $0x14
  101e98:	e8 eb f0 ff ff       	call   100f88 <bench_alloc>
  101e9d:	89 c7                	mov    %eax,%edi
  101e9f:	89 85 54 ff ff ff    	mov    %eax,-0xac(%ebp)
  101ea5:	8b 85 38 ff ff ff    	mov    -0xc8(%ebp),%eax
  101eab:	89 07                	mov    %eax,(%edi)
  101ead:	c1 e0 02             	shl    $0x2,%eax
  101eb0:	89 04 24             	mov    %eax,(%esp)
  101eb3:	e8 d0 f0 ff ff       	call   100f88 <bench_alloc>
  101eb8:	89 47 08             	mov    %eax,0x8(%edi)
  101ebb:	8b 07                	mov    (%edi),%eax
  101ebd:	8d 04 85 04 00 00 00 	lea    0x4(,%eax,4),%eax
  101ec4:	89 04 24             	mov    %eax,(%esp)
  101ec7:	e8 bc f0 ff ff       	call   100f88 <bench_alloc>
  101ecc:	89 47 04             	mov    %eax,0x4(%edi)
  101ecf:	c7 47 0c 00 00 00 00 	movl   $0x0,0xc(%edi)
  101ed6:	c7 47 10 00 00 00 00 	movl   $0x0,0x10(%edi)
  101edd:	8b 17                	mov    (%edi),%edx
  101edf:	83 c4 10             	add    $0x10,%esp
  101ee2:	85 d2                	test   %edx,%edx
  101ee4:	7e 13                	jle    101ef9 <bench_15pz_run+0x135>
  101ee6:	8d 14 90             	lea    (%eax,%edx,4),%edx
  101ee9:	8d 76 00             	lea    0x0(%esi),%esi
  101eec:	c7 00 00 00 00 00    	movl   $0x0,(%eax)
  101ef2:	83 c0 04             	add    $0x4,%eax
  101ef5:	39 d0                	cmp    %edx,%eax
  101ef7:	75 f3                	jne    101eec <bench_15pz_run+0x128>
  101ef9:	50                   	push   %eax
  101efa:	6a 00                	push   $0x0
  101efc:	56                   	push   %esi
  101efd:	8b bd 54 ff ff ff    	mov    -0xac(%ebp),%edi
  101f03:	57                   	push   %edi
  101f04:	e8 2f fc ff ff       	call   101b38 <_ZN14Updatable_heapI8N_puzzleILi4EEE4pushERKS1_i>
  101f09:	c7 05 18 58 10 00 ff 	movl   $0xffffffff,0x105818
  101f10:	ff ff ff 
  101f13:	8b 7f 0c             	mov    0xc(%edi),%edi
  101f16:	83 c4 10             	add    $0x10,%esp
  101f19:	c7 85 4c ff ff ff 00 	movl   $0x0,-0xb4(%ebp)
  101f20:	00 00 00 
  101f23:	85 ff                	test   %edi,%edi
  101f25:	0f 84 a1 01 00 00    	je     1020cc <bench_15pz_run+0x308>
  101f2b:	90                   	nop
  101f2c:	8b 85 54 ff ff ff    	mov    -0xac(%ebp),%eax
  101f32:	8b 48 08             	mov    0x8(%eax),%ecx
  101f35:	8b 41 04             	mov    0x4(%ecx),%eax
  101f38:	8a 10                	mov    (%eax),%dl
  101f3a:	88 95 40 ff ff ff    	mov    %dl,-0xc0(%ebp)
  101f40:	8a 50 01             	mov    0x1(%eax),%dl
  101f43:	88 95 44 ff ff ff    	mov    %dl,-0xbc(%ebp)
  101f49:	8a 50 02             	mov    0x2(%eax),%dl
  101f4c:	88 95 4b ff ff ff    	mov    %dl,-0xb5(%ebp)
  101f52:	8a 50 03             	mov    0x3(%eax),%dl
  101f55:	88 95 4a ff ff ff    	mov    %dl,-0xb6(%ebp)
  101f5b:	8b 30                	mov    (%eax),%esi
  101f5d:	89 b5 34 ff ff ff    	mov    %esi,-0xcc(%ebp)
  101f63:	8b 70 14             	mov    0x14(%eax),%esi
  101f66:	89 b5 3c ff ff ff    	mov    %esi,-0xc4(%ebp)
  101f6c:	83 c0 04             	add    $0x4,%eax
  101f6f:	89 de                	mov    %ebx,%esi
  101f71:	89 da                	mov    %ebx,%edx
  101f73:	89 8d 30 ff ff ff    	mov    %ecx,-0xd0(%ebp)
  101f79:	8a 08                	mov    (%eax),%cl
  101f7b:	88 4a 04             	mov    %cl,0x4(%edx)
  101f7e:	8a 48 01             	mov    0x1(%eax),%cl
  101f81:	88 4a 05             	mov    %cl,0x5(%edx)
  101f84:	8a 48 02             	mov    0x2(%eax),%cl
  101f87:	88 4a 06             	mov    %cl,0x6(%edx)
  101f8a:	8a 48 03             	mov    0x3(%eax),%cl
  101f8d:	88 4a 07             	mov    %cl,0x7(%edx)
  101f90:	83 c0 04             	add    $0x4,%eax
  101f93:	83 c2 04             	add    $0x4,%edx
  101f96:	3b 95 50 ff ff ff    	cmp    -0xb0(%ebp),%edx
  101f9c:	75 db                	jne    101f79 <bench_15pz_run+0x1b5>
  101f9e:	8b 8d 30 ff ff ff    	mov    -0xd0(%ebp),%ecx
  101fa4:	83 ff 01             	cmp    $0x1,%edi
  101fa7:	0f 84 c7 07 00 00    	je     102774 <bench_15pz_run+0x9b0>
  101fad:	0f 8e e9 08 00 00    	jle    10289c <bench_15pz_run+0xad8>
  101fb3:	8b 04 b9             	mov    (%ecx,%edi,4),%eax
  101fb6:	89 41 04             	mov    %eax,0x4(%ecx)
  101fb9:	c7 40 1c 01 00 00 00 	movl   $0x1,0x1c(%eax)
  101fc0:	8b 85 54 ff ff ff    	mov    -0xac(%ebp),%eax
  101fc6:	ff 48 0c             	decl   0xc(%eax)
  101fc9:	83 ec 0c             	sub    $0xc,%esp
  101fcc:	50                   	push   %eax
  101fcd:	e8 fe fc ff ff       	call   101cd0 <_ZN14Updatable_heapI8N_puzzleILi4EEE14percolate_downEv>
  101fd2:	83 c4 10             	add    $0x10,%esp
  101fd5:	8b 85 34 ff ff ff    	mov    -0xcc(%ebp),%eax
  101fdb:	89 85 78 ff ff ff    	mov    %eax,-0x88(%ebp)
  101fe1:	8b 85 3c ff ff ff    	mov    -0xc4(%ebp),%eax
  101fe7:	89 45 8c             	mov    %eax,-0x74(%ebp)
  101fea:	8d 85 78 ff ff ff    	lea    -0x88(%ebp),%eax
  101ff0:	89 85 30 ff ff ff    	mov    %eax,-0xd0(%ebp)
  101ff6:	8b 95 50 ff ff ff    	mov    -0xb0(%ebp),%edx
  101ffc:	8a 4e 04             	mov    0x4(%esi),%cl
  101fff:	88 48 04             	mov    %cl,0x4(%eax)
  102002:	8a 4e 05             	mov    0x5(%esi),%cl
  102005:	88 48 05             	mov    %cl,0x5(%eax)
  102008:	8a 4e 06             	mov    0x6(%esi),%cl
  10200b:	88 48 06             	mov    %cl,0x6(%eax)
  10200e:	8a 4e 07             	mov    0x7(%esi),%cl
  102011:	88 48 07             	mov    %cl,0x7(%eax)
  102014:	83 c6 04             	add    $0x4,%esi
  102017:	83 c0 04             	add    $0x4,%eax
  10201a:	39 d6                	cmp    %edx,%esi
  10201c:	75 de                	jne    101ffc <bench_15pz_run+0x238>
  10201e:	ff 85 4c ff ff ff    	incl   -0xb4(%ebp)
  102024:	31 c0                	xor    %eax,%eax
  102026:	66 90                	xchg   %ax,%ax
  102028:	40                   	inc    %eax
  102029:	89 44 83 fc          	mov    %eax,-0x4(%ebx,%eax,4)
  10202d:	83 f8 0f             	cmp    $0xf,%eax
  102030:	75 f6                	jne    102028 <bench_15pz_run+0x264>
  102032:	c7 45 e4 00 00 00 00 	movl   $0x0,-0x1c(%ebp)
  102039:	83 ec 08             	sub    $0x8,%esp
  10203c:	53                   	push   %ebx
  10203d:	8d 45 90             	lea    -0x70(%ebp),%eax
  102040:	50                   	push   %eax
  102041:	e8 ee f8 ff ff       	call   101934 <_ZN8N_puzzleILi4EEC1EPi>
  102046:	83 c4 10             	add    $0x10,%esp
  102049:	80 bd 40 ff ff ff 00 	cmpb   $0x0,-0xc0(%ebp)
  102050:	0f 84 97 00 00 00    	je     1020ed <bench_15pz_run+0x329>
  102056:	80 7d 90 00          	cmpb   $0x0,-0x70(%ebp)
  10205a:	0f 84 b8 00 00 00    	je     102118 <bench_15pz_run+0x354>
  102060:	8b 85 3c ff ff ff    	mov    -0xc4(%ebp),%eax
  102066:	39 45 a4             	cmp    %eax,-0x5c(%ebp)
  102069:	0f 85 a9 00 00 00    	jne    102118 <bench_15pz_run+0x354>
  10206f:	8d 4d 90             	lea    -0x70(%ebp),%ecx
  102072:	8d 95 78 ff ff ff    	lea    -0x88(%ebp),%edx
  102078:	31 c0                	xor    %eax,%eax
  10207a:	89 df                	mov    %ebx,%edi
  10207c:	8a 5c 01 04          	mov    0x4(%ecx,%eax,1),%bl
  102080:	38 5c 02 04          	cmp    %bl,0x4(%edx,%eax,1)
  102084:	0f 85 8a 00 00 00    	jne    102114 <bench_15pz_run+0x350>
  10208a:	40                   	inc    %eax
  10208b:	83 f8 04             	cmp    $0x4,%eax
  10208e:	75 ec                	jne    10207c <bench_15pz_run+0x2b8>
  102090:	89 fb                	mov    %edi,%ebx
  102092:	83 c2 04             	add    $0x4,%edx
  102095:	83 c1 04             	add    $0x4,%ecx
  102098:	8d 45 88             	lea    -0x78(%ebp),%eax
  10209b:	39 c2                	cmp    %eax,%edx
  10209d:	75 d9                	jne    102078 <bench_15pz_run+0x2b4>
  10209f:	8b 85 54 ff ff ff    	mov    -0xac(%ebp),%eax
  1020a5:	8b 50 04             	mov    0x4(%eax),%edx
  1020a8:	8d 8d 78 ff ff ff    	lea    -0x88(%ebp),%ecx
  1020ae:	8b 00                	mov    (%eax),%eax
  1020b0:	e8 cf f6 ff ff       	call   101784 <_ZNK14Updatable_heapI8N_puzzleILi4EEE7pointerERKS1_.isra.0>
  1020b5:	85 c0                	test   %eax,%eax
  1020b7:	0f 84 d5 07 00 00    	je     102892 <bench_15pz_run+0xace>
  1020bd:	8b 40 20             	mov    0x20(%eax),%eax
  1020c0:	0f af 85 4c ff ff ff 	imul   -0xb4(%ebp),%eax
  1020c7:	a3 18 58 10 00       	mov    %eax,0x105818
  1020cc:	8d 65 f4             	lea    -0xc(%ebp),%esp
  1020cf:	5b                   	pop    %ebx
  1020d0:	5e                   	pop    %esi
  1020d1:	5f                   	pop    %edi
  1020d2:	5d                   	pop    %ebp
  1020d3:	c3                   	ret    
  1020d4:	50                   	push   %eax
  1020d5:	ff b5 34 ff ff ff    	pushl  -0xcc(%ebp)
  1020db:	8d 45 90             	lea    -0x70(%ebp),%eax
  1020de:	50                   	push   %eax
  1020df:	ff b5 54 ff ff ff    	pushl  -0xac(%ebp)
  1020e5:	e8 4e fa ff ff       	call   101b38 <_ZN14Updatable_heapI8N_puzzleILi4EEE4pushERKS1_i>
  1020ea:	83 c4 10             	add    $0x10,%esp
  1020ed:	8b 85 54 ff ff ff    	mov    -0xac(%ebp),%eax
  1020f3:	8b 78 0c             	mov    0xc(%eax),%edi
  1020f6:	85 ff                	test   %edi,%edi
  1020f8:	74 d2                	je     1020cc <bench_15pz_run+0x308>
  1020fa:	8b b5 4c ff ff ff    	mov    -0xb4(%ebp),%esi
  102100:	39 b5 38 ff ff ff    	cmp    %esi,-0xc8(%ebp)
  102106:	0f 85 20 fe ff ff    	jne    101f2c <bench_15pz_run+0x168>
  10210c:	8d 65 f4             	lea    -0xc(%ebp),%esp
  10210f:	5b                   	pop    %ebx
  102110:	5e                   	pop    %esi
  102111:	5f                   	pop    %edi
  102112:	5d                   	pop    %ebp
  102113:	c3                   	ret    
  102114:	89 fb                	mov    %edi,%ebx
  102116:	66 90                	xchg   %ax,%ax
  102118:	80 bd 4b ff ff ff 03 	cmpb   $0x3,-0xb5(%ebp)
  10211f:	0f 84 a3 04 00 00    	je     1025c8 <bench_15pz_run+0x804>
  102125:	8b 85 54 ff ff ff    	mov    -0xac(%ebp),%eax
  10212b:	8b 50 04             	mov    0x4(%eax),%edx
  10212e:	8d 8d 78 ff ff ff    	lea    -0x88(%ebp),%ecx
  102134:	8b 00                	mov    (%eax),%eax
  102136:	e8 49 f6 ff ff       	call   101784 <_ZNK14Updatable_heapI8N_puzzleILi4EEE7pointerERKS1_.isra.0>
  10213b:	85 c0                	test   %eax,%eax
  10213d:	0f 84 52 06 00 00    	je     102795 <bench_15pz_run+0x9d1>
  102143:	8b 40 20             	mov    0x20(%eax),%eax
  102146:	40                   	inc    %eax
  102147:	89 85 34 ff ff ff    	mov    %eax,-0xcc(%ebp)
  10214d:	89 df                	mov    %ebx,%edi
  10214f:	89 da                	mov    %ebx,%edx
  102151:	8d 85 78 ff ff ff    	lea    -0x88(%ebp),%eax
  102157:	8a 48 04             	mov    0x4(%eax),%cl
  10215a:	88 4a 04             	mov    %cl,0x4(%edx)
  10215d:	8a 48 05             	mov    0x5(%eax),%cl
  102160:	88 4a 05             	mov    %cl,0x5(%edx)
  102163:	8a 48 06             	mov    0x6(%eax),%cl
  102166:	88 4a 06             	mov    %cl,0x6(%edx)
  102169:	8a 48 07             	mov    0x7(%eax),%cl
  10216c:	88 4a 07             	mov    %cl,0x7(%edx)
  10216f:	83 c0 04             	add    $0x4,%eax
  102172:	83 c2 04             	add    $0x4,%edx
  102175:	8d 75 88             	lea    -0x78(%ebp),%esi
  102178:	39 c6                	cmp    %eax,%esi
  10217a:	75 db                	jne    102157 <bench_15pz_run+0x393>
  10217c:	0f b6 95 44 ff ff ff 	movzbl -0xbc(%ebp),%edx
  102183:	89 95 40 ff ff ff    	mov    %edx,-0xc0(%ebp)
  102189:	0f b6 8d 4b ff ff ff 	movzbl -0xb5(%ebp),%ecx
  102190:	89 8d 3c ff ff ff    	mov    %ecx,-0xc4(%ebp)
  102196:	8d 71 01             	lea    0x1(%ecx),%esi
  102199:	8d 44 95 e8          	lea    -0x18(%ebp,%edx,4),%eax
  10219d:	0f be 44 08 95       	movsbl -0x6b(%eax,%ecx,1),%eax
  1021a2:	89 c1                	mov    %eax,%ecx
  1021a4:	48                   	dec    %eax
  1021a5:	25 03 00 00 80       	and    $0x80000003,%eax
  1021aa:	79 05                	jns    1021b1 <bench_15pz_run+0x3ed>
  1021ac:	48                   	dec    %eax
  1021ad:	83 c8 fc             	or     $0xfffffffc,%eax
  1021b0:	40                   	inc    %eax
  1021b1:	89 c2                	mov    %eax,%edx
  1021b3:	2b 95 3c ff ff ff    	sub    -0xc4(%ebp),%edx
  1021b9:	79 02                	jns    1021bd <bench_15pz_run+0x3f9>
  1021bb:	f7 da                	neg    %edx
  1021bd:	29 f0                	sub    %esi,%eax
  1021bf:	79 02                	jns    1021c3 <bench_15pz_run+0x3ff>
  1021c1:	f7 d8                	neg    %eax
  1021c3:	29 c2                	sub    %eax,%edx
  1021c5:	8a 85 4a ff ff ff    	mov    -0xb6(%ebp),%al
  1021cb:	01 d0                	add    %edx,%eax
  1021cd:	88 85 49 ff ff ff    	mov    %al,-0xb7(%ebp)
  1021d3:	8b 85 40 ff ff ff    	mov    -0xc0(%ebp),%eax
  1021d9:	8d 54 85 e8          	lea    -0x18(%ebp,%eax,4),%edx
  1021dd:	8b 85 3c ff ff ff    	mov    -0xc4(%ebp),%eax
  1021e3:	88 4c 02 c4          	mov    %cl,-0x3c(%edx,%eax,1)
  1021e7:	8a 85 4b ff ff ff    	mov    -0xb5(%ebp),%al
  1021ed:	40                   	inc    %eax
  1021ee:	88 85 48 ff ff ff    	mov    %al,-0xb8(%ebp)
  1021f4:	89 f0                	mov    %esi,%eax
  1021f6:	0f b6 c0             	movzbl %al,%eax
  1021f9:	c6 44 02 c4 00       	movb   $0x0,-0x3c(%edx,%eax,1)
  1021fe:	8d 43 04             	lea    0x4(%ebx),%eax
  102201:	89 85 28 ff ff ff    	mov    %eax,-0xd8(%ebp)
  102207:	89 c6                	mov    %eax,%esi
  102209:	8d 43 14             	lea    0x14(%ebx),%eax
  10220c:	89 85 2c ff ff ff    	mov    %eax,-0xd4(%ebp)
  102212:	31 c0                	xor    %eax,%eax
  102214:	8d 4e fc             	lea    -0x4(%esi),%ecx
  102217:	8d 14 00             	lea    (%eax,%eax,1),%edx
  10221a:	01 c2                	add    %eax,%edx
  10221c:	8d 14 92             	lea    (%edx,%edx,4),%edx
  10221f:	8d 14 90             	lea    (%eax,%edx,4),%edx
  102222:	01 d2                	add    %edx,%edx
  102224:	01 c2                	add    %eax,%edx
  102226:	8d 14 90             	lea    (%eax,%edx,4),%edx
  102229:	8d 14 90             	lea    (%eax,%edx,4),%edx
  10222c:	0f be 41 04          	movsbl 0x4(%ecx),%eax
  102230:	01 d0                	add    %edx,%eax
  102232:	41                   	inc    %ecx
  102233:	39 ce                	cmp    %ecx,%esi
  102235:	75 e0                	jne    102217 <bench_15pz_run+0x453>
  102237:	83 c6 04             	add    $0x4,%esi
  10223a:	3b b5 2c ff ff ff    	cmp    -0xd4(%ebp),%esi
  102240:	75 d2                	jne    102214 <bench_15pz_run+0x450>
  102242:	c6 45 90 01          	movb   $0x1,-0x70(%ebp)
  102246:	8a 8d 44 ff ff ff    	mov    -0xbc(%ebp),%cl
  10224c:	88 4d 91             	mov    %cl,-0x6f(%ebp)
  10224f:	8a 8d 48 ff ff ff    	mov    -0xb8(%ebp),%cl
  102255:	88 4d 92             	mov    %cl,-0x6e(%ebp)
  102258:	8a 8d 49 ff ff ff    	mov    -0xb7(%ebp),%cl
  10225e:	88 4d 93             	mov    %cl,-0x6d(%ebp)
  102261:	89 45 a4             	mov    %eax,-0x5c(%ebp)
  102264:	8d 45 90             	lea    -0x70(%ebp),%eax
  102267:	8d 53 10             	lea    0x10(%ebx),%edx
  10226a:	89 d6                	mov    %edx,%esi
  10226c:	8b 8d 28 ff ff ff    	mov    -0xd8(%ebp),%ecx
  102272:	8a 57 04             	mov    0x4(%edi),%dl
  102275:	88 50 04             	mov    %dl,0x4(%eax)
  102278:	8a 57 05             	mov    0x5(%edi),%dl
  10227b:	88 50 05             	mov    %dl,0x5(%eax)
  10227e:	8a 57 06             	mov    0x6(%edi),%dl
  102281:	88 50 06             	mov    %dl,0x6(%eax)
  102284:	8a 57 07             	mov    0x7(%edi),%dl
  102287:	88 50 07             	mov    %dl,0x7(%eax)
  10228a:	89 cf                	mov    %ecx,%edi
  10228c:	83 c0 04             	add    $0x4,%eax
  10228f:	39 ce                	cmp    %ecx,%esi
  102291:	74 05                	je     102298 <bench_15pz_run+0x4d4>
  102293:	83 c1 04             	add    $0x4,%ecx
  102296:	eb da                	jmp    102272 <bench_15pz_run+0x4ae>
  102298:	56                   	push   %esi
  102299:	ff b5 34 ff ff ff    	pushl  -0xcc(%ebp)
  10229f:	8d 45 90             	lea    -0x70(%ebp),%eax
  1022a2:	50                   	push   %eax
  1022a3:	ff b5 54 ff ff ff    	pushl  -0xac(%ebp)
  1022a9:	e8 8a f8 ff ff       	call   101b38 <_ZN14Updatable_heapI8N_puzzleILi4EEE4pushERKS1_i>
  1022ae:	83 c4 10             	add    $0x10,%esp
  1022b1:	80 bd 4b ff ff ff 00 	cmpb   $0x0,-0xb5(%ebp)
  1022b8:	0f 85 21 03 00 00    	jne    1025df <bench_15pz_run+0x81b>
  1022be:	80 bd 44 ff ff ff 03 	cmpb   $0x3,-0xbc(%ebp)
  1022c5:	0f 84 8f 01 00 00    	je     10245a <bench_15pz_run+0x696>
  1022cb:	8b 85 54 ff ff ff    	mov    -0xac(%ebp),%eax
  1022d1:	8b 50 04             	mov    0x4(%eax),%edx
  1022d4:	8d 8d 78 ff ff ff    	lea    -0x88(%ebp),%ecx
  1022da:	8b 00                	mov    (%eax),%eax
  1022dc:	e8 a3 f4 ff ff       	call   101784 <_ZNK14Updatable_heapI8N_puzzleILi4EEE7pointerERKS1_.isra.0>
  1022e1:	85 c0                	test   %eax,%eax
  1022e3:	0f 84 9d 04 00 00    	je     102786 <bench_15pz_run+0x9c2>
  1022e9:	8b 40 20             	mov    0x20(%eax),%eax
  1022ec:	40                   	inc    %eax
  1022ed:	89 85 34 ff ff ff    	mov    %eax,-0xcc(%ebp)
  1022f3:	89 df                	mov    %ebx,%edi
  1022f5:	89 da                	mov    %ebx,%edx
  1022f7:	8d 85 78 ff ff ff    	lea    -0x88(%ebp),%eax
  1022fd:	8a 48 04             	mov    0x4(%eax),%cl
  102300:	88 4a 04             	mov    %cl,0x4(%edx)
  102303:	8a 48 05             	mov    0x5(%eax),%cl
  102306:	88 4a 05             	mov    %cl,0x5(%edx)
  102309:	8a 48 06             	mov    0x6(%eax),%cl
  10230c:	88 4a 06             	mov    %cl,0x6(%edx)
  10230f:	8a 48 07             	mov    0x7(%eax),%cl
  102312:	88 4a 07             	mov    %cl,0x7(%edx)
  102315:	83 c0 04             	add    $0x4,%eax
  102318:	83 c2 04             	add    $0x4,%edx
  10231b:	8d 75 88             	lea    -0x78(%ebp),%esi
  10231e:	39 f0                	cmp    %esi,%eax
  102320:	75 db                	jne    1022fd <bench_15pz_run+0x539>
  102322:	8b 85 40 ff ff ff    	mov    -0xc0(%ebp),%eax
  102328:	8d 70 01             	lea    0x1(%eax),%esi
  10232b:	8d 44 85 ec          	lea    -0x14(%ebp,%eax,4),%eax
  10232f:	8b 8d 3c ff ff ff    	mov    -0xc4(%ebp),%ecx
  102335:	0f be 54 08 94       	movsbl -0x6c(%eax,%ecx,1),%edx
  10233a:	89 d1                	mov    %edx,%ecx
  10233c:	89 d0                	mov    %edx,%eax
  10233e:	48                   	dec    %eax
  10233f:	79 03                	jns    102344 <bench_15pz_run+0x580>
  102341:	8d 42 02             	lea    0x2(%edx),%eax
  102344:	c1 f8 02             	sar    $0x2,%eax
  102347:	89 c2                	mov    %eax,%edx
  102349:	2b 95 40 ff ff ff    	sub    -0xc0(%ebp),%edx
  10234f:	79 02                	jns    102353 <bench_15pz_run+0x58f>
  102351:	f7 da                	neg    %edx
  102353:	29 f0                	sub    %esi,%eax
  102355:	79 02                	jns    102359 <bench_15pz_run+0x595>
  102357:	f7 d8                	neg    %eax
  102359:	29 c2                	sub    %eax,%edx
  10235b:	8a 85 4a ff ff ff    	mov    -0xb6(%ebp),%al
  102361:	01 d0                	add    %edx,%eax
  102363:	88 85 49 ff ff ff    	mov    %al,-0xb7(%ebp)
  102369:	8b 85 40 ff ff ff    	mov    -0xc0(%ebp),%eax
  10236f:	8d 44 85 e8          	lea    -0x18(%ebp,%eax,4),%eax
  102373:	8b 95 3c ff ff ff    	mov    -0xc4(%ebp),%edx
  102379:	88 4c 10 c4          	mov    %cl,-0x3c(%eax,%edx,1)
  10237d:	8a 85 44 ff ff ff    	mov    -0xbc(%ebp),%al
  102383:	40                   	inc    %eax
  102384:	88 85 48 ff ff ff    	mov    %al,-0xb8(%ebp)
  10238a:	89 f0                	mov    %esi,%eax
  10238c:	0f b6 f0             	movzbl %al,%esi
  10238f:	8d 44 b5 e8          	lea    -0x18(%ebp,%esi,4),%eax
  102393:	c6 44 10 c4 00       	movb   $0x0,-0x3c(%eax,%edx,1)
  102398:	8d 43 04             	lea    0x4(%ebx),%eax
  10239b:	89 85 28 ff ff ff    	mov    %eax,-0xd8(%ebp)
  1023a1:	89 c6                	mov    %eax,%esi
  1023a3:	8d 43 14             	lea    0x14(%ebx),%eax
  1023a6:	89 85 2c ff ff ff    	mov    %eax,-0xd4(%ebp)
  1023ac:	31 c0                	xor    %eax,%eax
  1023ae:	8d 4e fc             	lea    -0x4(%esi),%ecx
  1023b1:	8d 14 00             	lea    (%eax,%eax,1),%edx
  1023b4:	01 c2                	add    %eax,%edx
  1023b6:	8d 14 92             	lea    (%edx,%edx,4),%edx
  1023b9:	8d 14 90             	lea    (%eax,%edx,4),%edx
  1023bc:	01 d2                	add    %edx,%edx
  1023be:	01 c2                	add    %eax,%edx
  1023c0:	8d 14 90             	lea    (%eax,%edx,4),%edx
  1023c3:	8d 14 90             	lea    (%eax,%edx,4),%edx
  1023c6:	0f be 41 04          	movsbl 0x4(%ecx),%eax
  1023ca:	01 d0                	add    %edx,%eax
  1023cc:	41                   	inc    %ecx
  1023cd:	39 ce                	cmp    %ecx,%esi
  1023cf:	75 e0                	jne    1023b1 <bench_15pz_run+0x5ed>
  1023d1:	83 c6 04             	add    $0x4,%esi
  1023d4:	39 b5 2c ff ff ff    	cmp    %esi,-0xd4(%ebp)
  1023da:	75 d2                	jne    1023ae <bench_15pz_run+0x5ea>
  1023dc:	c6 45 90 01          	movb   $0x1,-0x70(%ebp)
  1023e0:	8a 8d 48 ff ff ff    	mov    -0xb8(%ebp),%cl
  1023e6:	88 4d 91             	mov    %cl,-0x6f(%ebp)
  1023e9:	8a 8d 4b ff ff ff    	mov    -0xb5(%ebp),%cl
  1023ef:	88 4d 92             	mov    %cl,-0x6e(%ebp)
  1023f2:	8a 8d 49 ff ff ff    	mov    -0xb7(%ebp),%cl
  1023f8:	88 4d 93             	mov    %cl,-0x6d(%ebp)
  1023fb:	89 45 a4             	mov    %eax,-0x5c(%ebp)
  1023fe:	8d 45 90             	lea    -0x70(%ebp),%eax
  102401:	8d 53 10             	lea    0x10(%ebx),%edx
  102404:	89 de                	mov    %ebx,%esi
  102406:	8b 8d 28 ff ff ff    	mov    -0xd8(%ebp),%ecx
  10240c:	8a 5f 04             	mov    0x4(%edi),%bl
  10240f:	88 58 04             	mov    %bl,0x4(%eax)
  102412:	8a 5f 05             	mov    0x5(%edi),%bl
  102415:	88 58 05             	mov    %bl,0x5(%eax)
  102418:	8a 5f 06             	mov    0x6(%edi),%bl
  10241b:	88 58 06             	mov    %bl,0x6(%eax)
  10241e:	8a 5f 07             	mov    0x7(%edi),%bl
  102421:	88 58 07             	mov    %bl,0x7(%eax)
  102424:	89 cf                	mov    %ecx,%edi
  102426:	83 c0 04             	add    $0x4,%eax
  102429:	39 ca                	cmp    %ecx,%edx
  10242b:	74 05                	je     102432 <bench_15pz_run+0x66e>
  10242d:	83 c1 04             	add    $0x4,%ecx
  102430:	eb da                	jmp    10240c <bench_15pz_run+0x648>
  102432:	89 f3                	mov    %esi,%ebx
  102434:	52                   	push   %edx
  102435:	ff b5 34 ff ff ff    	pushl  -0xcc(%ebp)
  10243b:	8d 45 90             	lea    -0x70(%ebp),%eax
  10243e:	50                   	push   %eax
  10243f:	ff b5 54 ff ff ff    	pushl  -0xac(%ebp)
  102445:	e8 ee f6 ff ff       	call   101b38 <_ZN14Updatable_heapI8N_puzzleILi4EEE4pushERKS1_i>
  10244a:	83 c4 10             	add    $0x10,%esp
  10244d:	80 bd 44 ff ff ff 00 	cmpb   $0x0,-0xbc(%ebp)
  102454:	0f 84 93 fc ff ff    	je     1020ed <bench_15pz_run+0x329>
  10245a:	8b 85 54 ff ff ff    	mov    -0xac(%ebp),%eax
  102460:	8b 50 04             	mov    0x4(%eax),%edx
  102463:	8d 8d 78 ff ff ff    	lea    -0x88(%ebp),%ecx
  102469:	8b 00                	mov    (%eax),%eax
  10246b:	e8 14 f3 ff ff       	call   101784 <_ZNK14Updatable_heapI8N_puzzleILi4EEE7pointerERKS1_.isra.0>
  102470:	85 c0                	test   %eax,%eax
  102472:	0f 84 3b 03 00 00    	je     1027b3 <bench_15pz_run+0x9ef>
  102478:	8b 40 20             	mov    0x20(%eax),%eax
  10247b:	40                   	inc    %eax
  10247c:	89 85 34 ff ff ff    	mov    %eax,-0xcc(%ebp)
  102482:	89 df                	mov    %ebx,%edi
  102484:	89 d8                	mov    %ebx,%eax
  102486:	8b 95 30 ff ff ff    	mov    -0xd0(%ebp),%edx
  10248c:	8a 4a 04             	mov    0x4(%edx),%cl
  10248f:	88 48 04             	mov    %cl,0x4(%eax)
  102492:	8a 4a 05             	mov    0x5(%edx),%cl
  102495:	88 48 05             	mov    %cl,0x5(%eax)
  102498:	8a 4a 06             	mov    0x6(%edx),%cl
  10249b:	88 48 06             	mov    %cl,0x6(%eax)
  10249e:	8a 4a 07             	mov    0x7(%edx),%cl
  1024a1:	88 48 07             	mov    %cl,0x7(%eax)
  1024a4:	83 c2 04             	add    $0x4,%edx
  1024a7:	83 c0 04             	add    $0x4,%eax
  1024aa:	8d 75 88             	lea    -0x78(%ebp),%esi
  1024ad:	39 f2                	cmp    %esi,%edx
  1024af:	75 db                	jne    10248c <bench_15pz_run+0x6c8>
  1024b1:	8b 85 40 ff ff ff    	mov    -0xc0(%ebp),%eax
  1024b7:	8d 48 ff             	lea    -0x1(%eax),%ecx
  1024ba:	8d 44 85 e4          	lea    -0x1c(%ebp,%eax,4),%eax
  1024be:	8b b5 3c ff ff ff    	mov    -0xc4(%ebp),%esi
  1024c4:	0f be 44 30 94       	movsbl -0x6c(%eax,%esi,1),%eax
  1024c9:	88 85 30 ff ff ff    	mov    %al,-0xd0(%ebp)
  1024cf:	89 c2                	mov    %eax,%edx
  1024d1:	4a                   	dec    %edx
  1024d2:	79 03                	jns    1024d7 <bench_15pz_run+0x713>
  1024d4:	8d 50 02             	lea    0x2(%eax),%edx
  1024d7:	c1 fa 02             	sar    $0x2,%edx
  1024da:	89 d0                	mov    %edx,%eax
  1024dc:	2b 85 40 ff ff ff    	sub    -0xc0(%ebp),%eax
  1024e2:	79 02                	jns    1024e6 <bench_15pz_run+0x722>
  1024e4:	f7 d8                	neg    %eax
  1024e6:	29 ca                	sub    %ecx,%edx
  1024e8:	79 02                	jns    1024ec <bench_15pz_run+0x728>
  1024ea:	f7 da                	neg    %edx
  1024ec:	29 d0                	sub    %edx,%eax
  1024ee:	02 85 4a ff ff ff    	add    -0xb6(%ebp),%al
  1024f4:	88 85 4a ff ff ff    	mov    %al,-0xb6(%ebp)
  1024fa:	8b 85 40 ff ff ff    	mov    -0xc0(%ebp),%eax
  102500:	8d 44 85 e8          	lea    -0x18(%ebp,%eax,4),%eax
  102504:	8b b5 3c ff ff ff    	mov    -0xc4(%ebp),%esi
  10250a:	8a 95 30 ff ff ff    	mov    -0xd0(%ebp),%dl
  102510:	88 54 30 c4          	mov    %dl,-0x3c(%eax,%esi,1)
  102514:	8a 85 44 ff ff ff    	mov    -0xbc(%ebp),%al
  10251a:	48                   	dec    %eax
  10251b:	88 85 40 ff ff ff    	mov    %al,-0xc0(%ebp)
  102521:	8d 44 8d e8          	lea    -0x18(%ebp,%ecx,4),%eax
  102525:	c6 44 30 c4 00       	movb   $0x0,-0x3c(%eax,%esi,1)
  10252a:	8d 43 04             	lea    0x4(%ebx),%eax
  10252d:	89 85 3c ff ff ff    	mov    %eax,-0xc4(%ebp)
  102533:	89 c6                	mov    %eax,%esi
  102535:	8d 43 14             	lea    0x14(%ebx),%eax
  102538:	89 85 44 ff ff ff    	mov    %eax,-0xbc(%ebp)
  10253e:	31 c0                	xor    %eax,%eax
  102540:	8d 4e fc             	lea    -0x4(%esi),%ecx
  102543:	8d 14 00             	lea    (%eax,%eax,1),%edx
  102546:	01 c2                	add    %eax,%edx
  102548:	8d 14 92             	lea    (%edx,%edx,4),%edx
  10254b:	8d 14 90             	lea    (%eax,%edx,4),%edx
  10254e:	01 d2                	add    %edx,%edx
  102550:	01 c2                	add    %eax,%edx
  102552:	8d 14 90             	lea    (%eax,%edx,4),%edx
  102555:	8d 14 90             	lea    (%eax,%edx,4),%edx
  102558:	0f be 41 04          	movsbl 0x4(%ecx),%eax
  10255c:	01 d0                	add    %edx,%eax
  10255e:	41                   	inc    %ecx
  10255f:	39 ce                	cmp    %ecx,%esi
  102561:	75 e0                	jne    102543 <bench_15pz_run+0x77f>
  102563:	83 c6 04             	add    $0x4,%esi
  102566:	39 b5 44 ff ff ff    	cmp    %esi,-0xbc(%ebp)
  10256c:	75 d2                	jne    102540 <bench_15pz_run+0x77c>
  10256e:	c6 45 90 01          	movb   $0x1,-0x70(%ebp)
  102572:	8a 8d 40 ff ff ff    	mov    -0xc0(%ebp),%cl
  102578:	88 4d 91             	mov    %cl,-0x6f(%ebp)
  10257b:	8a 8d 4b ff ff ff    	mov    -0xb5(%ebp),%cl
  102581:	88 4d 92             	mov    %cl,-0x6e(%ebp)
  102584:	8a 8d 4a ff ff ff    	mov    -0xb6(%ebp),%cl
  10258a:	88 4d 93             	mov    %cl,-0x6d(%ebp)
  10258d:	89 45 a4             	mov    %eax,-0x5c(%ebp)
  102590:	8d 45 90             	lea    -0x70(%ebp),%eax
  102593:	8d 53 10             	lea    0x10(%ebx),%edx
  102596:	89 d6                	mov    %edx,%esi
  102598:	8b 8d 3c ff ff ff    	mov    -0xc4(%ebp),%ecx
  10259e:	8a 57 04             	mov    0x4(%edi),%dl
  1025a1:	88 50 04             	mov    %dl,0x4(%eax)
  1025a4:	8a 57 05             	mov    0x5(%edi),%dl
  1025a7:	88 50 05             	mov    %dl,0x5(%eax)
  1025aa:	8a 57 06             	mov    0x6(%edi),%dl
  1025ad:	88 50 06             	mov    %dl,0x6(%eax)
  1025b0:	8a 57 07             	mov    0x7(%edi),%dl
  1025b3:	88 50 07             	mov    %dl,0x7(%eax)
  1025b6:	89 cf                	mov    %ecx,%edi
  1025b8:	83 c0 04             	add    $0x4,%eax
  1025bb:	39 ce                	cmp    %ecx,%esi
  1025bd:	0f 84 11 fb ff ff    	je     1020d4 <bench_15pz_run+0x310>
  1025c3:	83 c1 04             	add    $0x4,%ecx
  1025c6:	eb d6                	jmp    10259e <bench_15pz_run+0x7da>
  1025c8:	0f b6 85 44 ff ff ff 	movzbl -0xbc(%ebp),%eax
  1025cf:	89 85 40 ff ff ff    	mov    %eax,-0xc0(%ebp)
  1025d5:	c7 85 3c ff ff ff 03 	movl   $0x3,-0xc4(%ebp)
  1025dc:	00 00 00 
  1025df:	8b 85 54 ff ff ff    	mov    -0xac(%ebp),%eax
  1025e5:	8b 50 04             	mov    0x4(%eax),%edx
  1025e8:	8d 8d 78 ff ff ff    	lea    -0x88(%ebp),%ecx
  1025ee:	8b 00                	mov    (%eax),%eax
  1025f0:	e8 8f f1 ff ff       	call   101784 <_ZNK14Updatable_heapI8N_puzzleILi4EEE7pointerERKS1_.isra.0>
  1025f5:	85 c0                	test   %eax,%eax
  1025f7:	0f 84 a7 01 00 00    	je     1027a4 <bench_15pz_run+0x9e0>
  1025fd:	8b 40 20             	mov    0x20(%eax),%eax
  102600:	40                   	inc    %eax
  102601:	89 85 34 ff ff ff    	mov    %eax,-0xcc(%ebp)
  102607:	89 df                	mov    %ebx,%edi
  102609:	89 da                	mov    %ebx,%edx
  10260b:	8d 85 78 ff ff ff    	lea    -0x88(%ebp),%eax
  102611:	8a 48 04             	mov    0x4(%eax),%cl
  102614:	88 4a 04             	mov    %cl,0x4(%edx)
  102617:	8a 48 05             	mov    0x5(%eax),%cl
  10261a:	88 4a 05             	mov    %cl,0x5(%edx)
  10261d:	8a 48 06             	mov    0x6(%eax),%cl
  102620:	88 4a 06             	mov    %cl,0x6(%edx)
  102623:	8a 48 07             	mov    0x7(%eax),%cl
  102626:	88 4a 07             	mov    %cl,0x7(%edx)
  102629:	83 c0 04             	add    $0x4,%eax
  10262c:	83 c2 04             	add    $0x4,%edx
  10262f:	8d 75 88             	lea    -0x78(%ebp),%esi
  102632:	39 f0                	cmp    %esi,%eax
  102634:	75 db                	jne    102611 <bench_15pz_run+0x84d>
  102636:	8b b5 3c ff ff ff    	mov    -0xc4(%ebp),%esi
  10263c:	8d 56 ff             	lea    -0x1(%esi),%edx
  10263f:	8b 85 40 ff ff ff    	mov    -0xc0(%ebp),%eax
  102645:	8d 44 85 e8          	lea    -0x18(%ebp,%eax,4),%eax
  102649:	0f be 44 30 93       	movsbl -0x6d(%eax,%esi,1),%eax
  10264e:	89 c1                	mov    %eax,%ecx
  102650:	48                   	dec    %eax
  102651:	25 03 00 00 80       	and    $0x80000003,%eax
  102656:	79 05                	jns    10265d <bench_15pz_run+0x899>
  102658:	48                   	dec    %eax
  102659:	83 c8 fc             	or     $0xfffffffc,%eax
  10265c:	40                   	inc    %eax
  10265d:	89 c6                	mov    %eax,%esi
  10265f:	2b b5 3c ff ff ff    	sub    -0xc4(%ebp),%esi
  102665:	89 b5 2c ff ff ff    	mov    %esi,-0xd4(%ebp)
  10266b:	79 08                	jns    102675 <bench_15pz_run+0x8b1>
  10266d:	f7 de                	neg    %esi
  10266f:	89 b5 2c ff ff ff    	mov    %esi,-0xd4(%ebp)
  102675:	29 d0                	sub    %edx,%eax
  102677:	89 c6                	mov    %eax,%esi
  102679:	79 02                	jns    10267d <bench_15pz_run+0x8b9>
  10267b:	f7 de                	neg    %esi
  10267d:	8b 85 2c ff ff ff    	mov    -0xd4(%ebp),%eax
  102683:	29 f0                	sub    %esi,%eax
  102685:	02 85 4a ff ff ff    	add    -0xb6(%ebp),%al
  10268b:	88 85 49 ff ff ff    	mov    %al,-0xb7(%ebp)
  102691:	8b 85 40 ff ff ff    	mov    -0xc0(%ebp),%eax
  102697:	8d 44 85 e8          	lea    -0x18(%ebp,%eax,4),%eax
  10269b:	8b b5 3c ff ff ff    	mov    -0xc4(%ebp),%esi
  1026a1:	88 4c 30 c4          	mov    %cl,-0x3c(%eax,%esi,1)
  1026a5:	0f b6 b5 4b ff ff ff 	movzbl -0xb5(%ebp),%esi
  1026ac:	8d 4e ff             	lea    -0x1(%esi),%ecx
  1026af:	88 8d 48 ff ff ff    	mov    %cl,-0xb8(%ebp)
  1026b5:	c6 44 02 c4 00       	movb   $0x0,-0x3c(%edx,%eax,1)
  1026ba:	8d 43 04             	lea    0x4(%ebx),%eax
  1026bd:	89 85 28 ff ff ff    	mov    %eax,-0xd8(%ebp)
  1026c3:	89 c6                	mov    %eax,%esi
  1026c5:	8d 43 14             	lea    0x14(%ebx),%eax
  1026c8:	89 85 2c ff ff ff    	mov    %eax,-0xd4(%ebp)
  1026ce:	31 c0                	xor    %eax,%eax
  1026d0:	8d 4e fc             	lea    -0x4(%esi),%ecx
  1026d3:	8d 14 00             	lea    (%eax,%eax,1),%edx
  1026d6:	01 c2                	add    %eax,%edx
  1026d8:	8d 14 92             	lea    (%edx,%edx,4),%edx
  1026db:	8d 14 90             	lea    (%eax,%edx,4),%edx
  1026de:	01 d2                	add    %edx,%edx
  1026e0:	01 c2                	add    %eax,%edx
  1026e2:	8d 14 90             	lea    (%eax,%edx,4),%edx
  1026e5:	8d 14 90             	lea    (%eax,%edx,4),%edx
  1026e8:	0f be 41 04          	movsbl 0x4(%ecx),%eax
  1026ec:	01 d0                	add    %edx,%eax
  1026ee:	41                   	inc    %ecx
  1026ef:	39 f1                	cmp    %esi,%ecx
  1026f1:	75 e0                	jne    1026d3 <bench_15pz_run+0x90f>
  1026f3:	8d 71 04             	lea    0x4(%ecx),%esi
  1026f6:	39 b5 2c ff ff ff    	cmp    %esi,-0xd4(%ebp)
  1026fc:	75 d2                	jne    1026d0 <bench_15pz_run+0x90c>
  1026fe:	c6 45 90 01          	movb   $0x1,-0x70(%ebp)
  102702:	8a 8d 44 ff ff ff    	mov    -0xbc(%ebp),%cl
  102708:	88 4d 91             	mov    %cl,-0x6f(%ebp)
  10270b:	8a 8d 48 ff ff ff    	mov    -0xb8(%ebp),%cl
  102711:	88 4d 92             	mov    %cl,-0x6e(%ebp)
  102714:	8a 8d 49 ff ff ff    	mov    -0xb7(%ebp),%cl
  10271a:	88 4d 93             	mov    %cl,-0x6d(%ebp)
  10271d:	89 45 a4             	mov    %eax,-0x5c(%ebp)
  102720:	8d 45 90             	lea    -0x70(%ebp),%eax
  102723:	8d 53 10             	lea    0x10(%ebx),%edx
  102726:	89 d6                	mov    %edx,%esi
  102728:	8b 8d 28 ff ff ff    	mov    -0xd8(%ebp),%ecx
  10272e:	8a 57 04             	mov    0x4(%edi),%dl
  102731:	88 50 04             	mov    %dl,0x4(%eax)
  102734:	8a 57 05             	mov    0x5(%edi),%dl
  102737:	88 50 05             	mov    %dl,0x5(%eax)
  10273a:	8a 57 06             	mov    0x6(%edi),%dl
  10273d:	88 50 06             	mov    %dl,0x6(%eax)
  102740:	8a 57 07             	mov    0x7(%edi),%dl
  102743:	88 50 07             	mov    %dl,0x7(%eax)
  102746:	89 cf                	mov    %ecx,%edi
  102748:	83 c0 04             	add    $0x4,%eax
  10274b:	39 f1                	cmp    %esi,%ecx
  10274d:	74 05                	je     102754 <bench_15pz_run+0x990>
  10274f:	83 c1 04             	add    $0x4,%ecx
  102752:	eb da                	jmp    10272e <bench_15pz_run+0x96a>
  102754:	51                   	push   %ecx
  102755:	ff b5 34 ff ff ff    	pushl  -0xcc(%ebp)
  10275b:	8d 45 90             	lea    -0x70(%ebp),%eax
  10275e:	50                   	push   %eax
  10275f:	ff b5 54 ff ff ff    	pushl  -0xac(%ebp)
  102765:	e8 ce f3 ff ff       	call   101b38 <_ZN14Updatable_heapI8N_puzzleILi4EEE4pushERKS1_i>
  10276a:	83 c4 10             	add    $0x10,%esp
  10276d:	e9 4c fb ff ff       	jmp    1022be <bench_15pz_run+0x4fa>
  102772:	66 90                	xchg   %ax,%ax
  102774:	8b 85 54 ff ff ff    	mov    -0xac(%ebp),%eax
  10277a:	c7 40 0c 00 00 00 00 	movl   $0x0,0xc(%eax)
  102781:	e9 4f f8 ff ff       	jmp    101fd5 <bench_15pz_run+0x211>
  102786:	c7 85 34 ff ff ff 00 	movl   $0x80000000,-0xcc(%ebp)
  10278d:	00 00 80 
  102790:	e9 5e fb ff ff       	jmp    1022f3 <bench_15pz_run+0x52f>
  102795:	c7 85 34 ff ff ff 00 	movl   $0x80000000,-0xcc(%ebp)
  10279c:	00 00 80 
  10279f:	e9 a9 f9 ff ff       	jmp    10214d <bench_15pz_run+0x389>
  1027a4:	c7 85 34 ff ff ff 00 	movl   $0x80000000,-0xcc(%ebp)
  1027ab:	00 00 80 
  1027ae:	e9 54 fe ff ff       	jmp    102607 <bench_15pz_run+0x843>
  1027b3:	c7 85 34 ff ff ff 00 	movl   $0x80000000,-0xcc(%ebp)
  1027ba:	00 00 80 
  1027bd:	e9 c0 fc ff ff       	jmp    102482 <bench_15pz_run+0x6be>
  1027c2:	83 ec 08             	sub    $0x8,%esp
  1027c5:	68 60 55 10 00       	push   $0x105560
  1027ca:	8d 5d a8             	lea    -0x58(%ebp),%ebx
  1027cd:	53                   	push   %ebx
  1027ce:	e8 61 f1 ff ff       	call   101934 <_ZN8N_puzzleILi4EEC1EPi>
  1027d3:	8b 45 a8             	mov    -0x58(%ebp),%eax
  1027d6:	89 85 60 ff ff ff    	mov    %eax,-0xa0(%ebp)
  1027dc:	8b 45 bc             	mov    -0x44(%ebp),%eax
  1027df:	89 85 74 ff ff ff    	mov    %eax,-0x8c(%ebp)
  1027e5:	89 d8                	mov    %ebx,%eax
  1027e7:	89 f2                	mov    %esi,%edx
  1027e9:	8d 4d b8             	lea    -0x48(%ebp),%ecx
  1027ec:	89 8d 50 ff ff ff    	mov    %ecx,-0xb0(%ebp)
  1027f2:	83 c4 10             	add    $0x10,%esp
  1027f5:	89 df                	mov    %ebx,%edi
  1027f7:	8a 58 04             	mov    0x4(%eax),%bl
  1027fa:	88 5a 04             	mov    %bl,0x4(%edx)
  1027fd:	8a 58 05             	mov    0x5(%eax),%bl
  102800:	88 5a 05             	mov    %bl,0x5(%edx)
  102803:	8a 58 06             	mov    0x6(%eax),%bl
  102806:	88 5a 06             	mov    %bl,0x6(%edx)
  102809:	8a 58 07             	mov    0x7(%eax),%bl
  10280c:	88 5a 07             	mov    %bl,0x7(%edx)
  10280f:	83 c0 04             	add    $0x4,%eax
  102812:	83 c2 04             	add    $0x4,%edx
  102815:	39 c1                	cmp    %eax,%ecx
  102817:	75 de                	jne    1027f7 <bench_15pz_run+0xa33>
  102819:	89 fb                	mov    %edi,%ebx
  10281b:	c7 85 38 ff ff ff 0a 	movl   $0xa,-0xc8(%ebp)
  102822:	00 00 00 
  102825:	e9 55 f6 ff ff       	jmp    101e7f <bench_15pz_run+0xbb>
  10282a:	83 ec 08             	sub    $0x8,%esp
  10282d:	68 e0 54 10 00       	push   $0x1054e0
  102832:	8d 5d a8             	lea    -0x58(%ebp),%ebx
  102835:	53                   	push   %ebx
  102836:	e8 f9 f0 ff ff       	call   101934 <_ZN8N_puzzleILi4EEC1EPi>
  10283b:	8b 45 a8             	mov    -0x58(%ebp),%eax
  10283e:	89 85 60 ff ff ff    	mov    %eax,-0xa0(%ebp)
  102844:	8b 45 bc             	mov    -0x44(%ebp),%eax
  102847:	89 85 74 ff ff ff    	mov    %eax,-0x8c(%ebp)
  10284d:	89 d8                	mov    %ebx,%eax
  10284f:	89 f2                	mov    %esi,%edx
  102851:	8d 4d b8             	lea    -0x48(%ebp),%ecx
  102854:	89 8d 50 ff ff ff    	mov    %ecx,-0xb0(%ebp)
  10285a:	83 c4 10             	add    $0x10,%esp
  10285d:	89 df                	mov    %ebx,%edi
  10285f:	8a 58 04             	mov    0x4(%eax),%bl
  102862:	88 5a 04             	mov    %bl,0x4(%edx)
  102865:	8a 58 05             	mov    0x5(%eax),%bl
  102868:	88 5a 05             	mov    %bl,0x5(%edx)
  10286b:	8a 58 06             	mov    0x6(%eax),%bl
  10286e:	88 5a 06             	mov    %bl,0x6(%edx)
  102871:	8a 58 07             	mov    0x7(%eax),%bl
  102874:	88 5a 07             	mov    %bl,0x7(%edx)
  102877:	83 c0 04             	add    $0x4,%eax
  10287a:	83 c2 04             	add    $0x4,%edx
  10287d:	39 c1                	cmp    %eax,%ecx
  10287f:	75 de                	jne    10285f <bench_15pz_run+0xa9b>
  102881:	89 fb                	mov    %edi,%ebx
  102883:	c7 85 38 ff ff ff 00 	movl   $0x4000,-0xc8(%ebp)
  10288a:	40 00 00 
  10288d:	e9 ed f5 ff ff       	jmp    101e7f <bench_15pz_run+0xbb>
  102892:	b8 ff ff ff 7f       	mov    $0x7fffffff,%eax
  102897:	e9 24 f8 ff ff       	jmp    1020c0 <bench_15pz_run+0x2fc>
  10289c:	57                   	push   %edi
  10289d:	6a 56                	push   $0x56
  10289f:	68 c0 4d 10 00       	push   $0x104dc0
  1028a4:	68 7b 4c 10 00       	push   $0x104c7b
  1028a9:	e8 3e 1e 00 00       	call   1046ec <printf>
  1028ae:	c7 04 24 01 00 00 00 	movl   $0x1,(%esp)
  1028b5:	e8 86 17 00 00       	call   104040 <halt>
  1028ba:	50                   	push   %eax
  1028bb:	6a 2d                	push   $0x2d
  1028bd:	e9 3d f5 ff ff       	jmp    101dff <bench_15pz_run+0x3b>
  1028c2:	66 90                	xchg   %ax,%ax

001028c4 <dfs>:
  1028c4:	55                   	push   %ebp
  1028c5:	89 e5                	mov    %esp,%ebp
  1028c7:	57                   	push   %edi
  1028c8:	56                   	push   %esi
  1028c9:	53                   	push   %ebx
  1028ca:	83 ec 1c             	sub    $0x1c,%esp
  1028cd:	89 c6                	mov    %eax,%esi
  1028cf:	89 55 e4             	mov    %edx,-0x1c(%ebp)
  1028d2:	89 4d e0             	mov    %ecx,-0x20(%ebp)
  1028d5:	a1 20 58 10 00       	mov    0x105820,%eax
  1028da:	39 f0                	cmp    %esi,%eax
  1028dc:	74 3e                	je     10291c <dfs+0x58>
  1028de:	89 d3                	mov    %edx,%ebx
  1028e0:	09 cb                	or     %ecx,%ebx
  1028e2:	09 f3                	or     %esi,%ebx
  1028e4:	f7 d3                	not    %ebx
  1028e6:	31 ff                	xor    %edi,%edi
  1028e8:	21 c3                	and    %eax,%ebx
  1028ea:	74 23                	je     10290f <dfs+0x4b>
  1028ec:	89 d8                	mov    %ebx,%eax
  1028ee:	f7 d8                	neg    %eax
  1028f0:	21 d8                	and    %ebx,%eax
  1028f2:	29 c3                	sub    %eax,%ebx
  1028f4:	8b 4d e0             	mov    -0x20(%ebp),%ecx
  1028f7:	09 c1                	or     %eax,%ecx
  1028f9:	d1 e9                	shr    %ecx
  1028fb:	8b 55 e4             	mov    -0x1c(%ebp),%edx
  1028fe:	09 c2                	or     %eax,%edx
  102900:	01 d2                	add    %edx,%edx
  102902:	09 f0                	or     %esi,%eax
  102904:	e8 bb ff ff ff       	call   1028c4 <dfs>
  102909:	01 c7                	add    %eax,%edi
  10290b:	85 db                	test   %ebx,%ebx
  10290d:	75 dd                	jne    1028ec <dfs+0x28>
  10290f:	89 f8                	mov    %edi,%eax
  102911:	83 c4 1c             	add    $0x1c,%esp
  102914:	5b                   	pop    %ebx
  102915:	5e                   	pop    %esi
  102916:	5f                   	pop    %edi
  102917:	5d                   	pop    %ebp
  102918:	c3                   	ret    
  102919:	8d 76 00             	lea    0x0(%esi),%esi
  10291c:	bf 01 00 00 00       	mov    $0x1,%edi
  102921:	89 f8                	mov    %edi,%eax
  102923:	83 c4 1c             	add    $0x1c,%esp
  102926:	5b                   	pop    %ebx
  102927:	5e                   	pop    %esi
  102928:	5f                   	pop    %edi
  102929:	5d                   	pop    %ebp
  10292a:	c3                   	ret    
  10292b:	90                   	nop

0010292c <bench_queen_prepare>:
  10292c:	c7 05 1c 58 10 00 00 	movl   $0x0,0x10581c
  102933:	00 00 00 
  102936:	a1 fc 57 10 00       	mov    0x1057fc,%eax
  10293b:	8b 08                	mov    (%eax),%ecx
  10293d:	b8 01 00 00 00       	mov    $0x1,%eax
  102942:	d3 e0                	shl    %cl,%eax
  102944:	48                   	dec    %eax
  102945:	a3 20 58 10 00       	mov    %eax,0x105820
  10294a:	c3                   	ret    
  10294b:	90                   	nop

0010294c <bench_queen_run>:
  10294c:	55                   	push   %ebp
  10294d:	89 e5                	mov    %esp,%ebp
  10294f:	83 ec 08             	sub    $0x8,%esp
  102952:	31 c9                	xor    %ecx,%ecx
  102954:	31 d2                	xor    %edx,%edx
  102956:	31 c0                	xor    %eax,%eax
  102958:	e8 67 ff ff ff       	call   1028c4 <dfs>
  10295d:	a3 1c 58 10 00       	mov    %eax,0x10581c
  102962:	c9                   	leave  
  102963:	c3                   	ret    

00102964 <bench_queen_validate>:
  102964:	a1 fc 57 10 00       	mov    0x1057fc,%eax
  102969:	8b 15 1c 58 10 00    	mov    0x10581c,%edx
  10296f:	39 50 0c             	cmp    %edx,0xc(%eax)
  102972:	0f 94 c0             	sete   %al
  102975:	0f b6 c0             	movzbl %al,%eax
  102978:	c3                   	ret    
  102979:	66 90                	xchg   %ax,%ax
  10297b:	90                   	nop

0010297c <_ZN5Dinic3DFSEii>:
  10297c:	55                   	push   %ebp
  10297d:	89 e5                	mov    %esp,%ebp
  10297f:	57                   	push   %edi
  102980:	56                   	push   %esi
  102981:	53                   	push   %ebx
  102982:	81 ec bc 00 00 00    	sub    $0xbc,%esp
  102988:	8b 7d 08             	mov    0x8(%ebp),%edi
  10298b:	8b 45 0c             	mov    0xc(%ebp),%eax
  10298e:	39 47 0c             	cmp    %eax,0xc(%edi)
  102991:	0f 84 b5 06 00 00    	je     10304c <_ZN5Dinic3DFSEii+0x6d0>
  102997:	8b 4d 10             	mov    0x10(%ebp),%ecx
  10299a:	85 c9                	test   %ecx,%ecx
  10299c:	0f 84 96 06 00 00    	je     103038 <_ZN5Dinic3DFSEii+0x6bc>
  1029a2:	c1 e0 02             	shl    $0x2,%eax
  1029a5:	89 c3                	mov    %eax,%ebx
  1029a7:	89 45 c0             	mov    %eax,-0x40(%ebp)
  1029aa:	8b 47 20             	mov    0x20(%edi),%eax
  1029ad:	8b 04 18             	mov    (%eax,%ebx,1),%eax
  1029b0:	89 45 e4             	mov    %eax,-0x1c(%ebp)
  1029b3:	c7 45 a0 00 00 00 00 	movl   $0x0,-0x60(%ebp)
  1029ba:	40                   	inc    %eax
  1029bb:	75 46                	jne    102a03 <_ZN5Dinic3DFSEii+0x87>
  1029bd:	8b 45 a0             	mov    -0x60(%ebp),%eax
  1029c0:	8d 65 f4             	lea    -0xc(%ebp),%esp
  1029c3:	5b                   	pop    %ebx
  1029c4:	5e                   	pop    %esi
  1029c5:	5f                   	pop    %edi
  1029c6:	5d                   	pop    %ebp
  1029c7:	c3                   	ret    
  1029c8:	89 d7                	mov    %edx,%edi
  1029ca:	8b 45 88             	mov    -0x78(%ebp),%eax
  1029cd:	85 c0                	test   %eax,%eax
  1029cf:	7e 23                	jle    1029f4 <_ZN5Dinic3DFSEii+0x78>
  1029d1:	8b 47 10             	mov    0x10(%edi),%eax
  1029d4:	89 c1                	mov    %eax,%ecx
  1029d6:	8b 45 c8             	mov    -0x38(%ebp),%eax
  1029d9:	8b 5d 88             	mov    -0x78(%ebp),%ebx
  1029dc:	01 58 0c             	add    %ebx,0xc(%eax)
  1029df:	8b 45 e4             	mov    -0x1c(%ebp),%eax
  1029e2:	83 f0 01             	xor    $0x1,%eax
  1029e5:	c1 e0 04             	shl    $0x4,%eax
  1029e8:	29 5c 01 0c          	sub    %ebx,0xc(%ecx,%eax,1)
  1029ec:	01 5d a0             	add    %ebx,-0x60(%ebp)
  1029ef:	29 5d 10             	sub    %ebx,0x10(%ebp)
  1029f2:	74 c9                	je     1029bd <_ZN5Dinic3DFSEii+0x41>
  1029f4:	8b 47 18             	mov    0x18(%edi),%eax
  1029f7:	8b 5d e4             	mov    -0x1c(%ebp),%ebx
  1029fa:	8b 04 98             	mov    (%eax,%ebx,4),%eax
  1029fd:	89 45 e4             	mov    %eax,-0x1c(%ebp)
  102a00:	40                   	inc    %eax
  102a01:	74 ba                	je     1029bd <_ZN5Dinic3DFSEii+0x41>
  102a03:	8b 5f 10             	mov    0x10(%edi),%ebx
  102a06:	8b 45 e4             	mov    -0x1c(%ebp),%eax
  102a09:	c1 e0 04             	shl    $0x4,%eax
  102a0c:	01 d8                	add    %ebx,%eax
  102a0e:	89 45 c8             	mov    %eax,-0x38(%ebp)
  102a11:	8b 77 1c             	mov    0x1c(%edi),%esi
  102a14:	8b 50 04             	mov    0x4(%eax),%edx
  102a17:	8d 04 95 00 00 00 00 	lea    0x0(,%edx,4),%eax
  102a1e:	89 45 d4             	mov    %eax,-0x2c(%ebp)
  102a21:	8b 0c 06             	mov    (%esi,%eax,1),%ecx
  102a24:	89 4d d8             	mov    %ecx,-0x28(%ebp)
  102a27:	8b 45 c0             	mov    -0x40(%ebp),%eax
  102a2a:	8b 04 06             	mov    (%esi,%eax,1),%eax
  102a2d:	89 45 e0             	mov    %eax,-0x20(%ebp)
  102a30:	40                   	inc    %eax
  102a31:	39 c8                	cmp    %ecx,%eax
  102a33:	75 bf                	jne    1029f4 <_ZN5Dinic3DFSEii+0x78>
  102a35:	8b 4d c8             	mov    -0x38(%ebp),%ecx
  102a38:	8b 41 08             	mov    0x8(%ecx),%eax
  102a3b:	2b 41 0c             	sub    0xc(%ecx),%eax
  102a3e:	89 45 a8             	mov    %eax,-0x58(%ebp)
  102a41:	3b 45 10             	cmp    0x10(%ebp),%eax
  102a44:	0f 8f 46 05 00 00    	jg     102f90 <_ZN5Dinic3DFSEii+0x614>
  102a4a:	3b 57 0c             	cmp    0xc(%edi),%edx
  102a4d:	0f 84 4c 05 00 00    	je     102f9f <_ZN5Dinic3DFSEii+0x623>
  102a53:	8b 55 a8             	mov    -0x58(%ebp),%edx
  102a56:	85 d2                	test   %edx,%edx
  102a58:	74 9a                	je     1029f4 <_ZN5Dinic3DFSEii+0x78>
  102a5a:	8b 47 20             	mov    0x20(%edi),%eax
  102a5d:	8b 55 d4             	mov    -0x2c(%ebp),%edx
  102a60:	8b 04 10             	mov    (%eax,%edx,1),%eax
  102a63:	89 45 dc             	mov    %eax,-0x24(%ebp)
  102a66:	40                   	inc    %eax
  102a67:	74 8b                	je     1029f4 <_ZN5Dinic3DFSEii+0x78>
  102a69:	c7 45 88 00 00 00 00 	movl   $0x0,-0x78(%ebp)
  102a70:	89 5d e0             	mov    %ebx,-0x20(%ebp)
  102a73:	8b 4d d8             	mov    -0x28(%ebp),%ecx
  102a76:	89 fa                	mov    %edi,%edx
  102a78:	89 f7                	mov    %esi,%edi
  102a7a:	eb 22                	jmp    102a9e <_ZN5Dinic3DFSEii+0x122>
  102a7c:	8b 42 18             	mov    0x18(%edx),%eax
  102a7f:	8b 5d dc             	mov    -0x24(%ebp),%ebx
  102a82:	8b 04 98             	mov    (%eax,%ebx,4),%eax
  102a85:	89 45 dc             	mov    %eax,-0x24(%ebp)
  102a88:	40                   	inc    %eax
  102a89:	0f 84 39 ff ff ff    	je     1029c8 <_ZN5Dinic3DFSEii+0x4c>
  102a8f:	8b 42 10             	mov    0x10(%edx),%eax
  102a92:	89 45 e0             	mov    %eax,-0x20(%ebp)
  102a95:	8b 7a 1c             	mov    0x1c(%edx),%edi
  102a98:	8b 45 d4             	mov    -0x2c(%ebp),%eax
  102a9b:	8b 0c 07             	mov    (%edi,%eax,1),%ecx
  102a9e:	8b 45 dc             	mov    -0x24(%ebp),%eax
  102aa1:	c1 e0 04             	shl    $0x4,%eax
  102aa4:	03 45 e0             	add    -0x20(%ebp),%eax
  102aa7:	89 45 b8             	mov    %eax,-0x48(%ebp)
  102aaa:	8b 40 04             	mov    0x4(%eax),%eax
  102aad:	8d 34 85 00 00 00 00 	lea    0x0(,%eax,4),%esi
  102ab4:	89 75 cc             	mov    %esi,-0x34(%ebp)
  102ab7:	8b 34 37             	mov    (%edi,%esi,1),%esi
  102aba:	41                   	inc    %ecx
  102abb:	39 f1                	cmp    %esi,%ecx
  102abd:	75 bd                	jne    102a7c <_ZN5Dinic3DFSEii+0x100>
  102abf:	8b 5d b8             	mov    -0x48(%ebp),%ebx
  102ac2:	8b 4b 08             	mov    0x8(%ebx),%ecx
  102ac5:	2b 4b 0c             	sub    0xc(%ebx),%ecx
  102ac8:	89 4d 94             	mov    %ecx,-0x6c(%ebp)
  102acb:	8b 5d a8             	mov    -0x58(%ebp),%ebx
  102ace:	39 d9                	cmp    %ebx,%ecx
  102ad0:	7e 03                	jle    102ad5 <_ZN5Dinic3DFSEii+0x159>
  102ad2:	89 5d 94             	mov    %ebx,-0x6c(%ebp)
  102ad5:	3b 42 0c             	cmp    0xc(%edx),%eax
  102ad8:	0f 84 ce 04 00 00    	je     102fac <_ZN5Dinic3DFSEii+0x630>
  102ade:	8b 45 94             	mov    -0x6c(%ebp),%eax
  102ae1:	85 c0                	test   %eax,%eax
  102ae3:	74 97                	je     102a7c <_ZN5Dinic3DFSEii+0x100>
  102ae5:	8b 42 20             	mov    0x20(%edx),%eax
  102ae8:	8b 5d cc             	mov    -0x34(%ebp),%ebx
  102aeb:	8b 0c 18             	mov    (%eax,%ebx,1),%ecx
  102aee:	83 f9 ff             	cmp    $0xffffffff,%ecx
  102af1:	74 89                	je     102a7c <_ZN5Dinic3DFSEii+0x100>
  102af3:	c7 85 78 ff ff ff 00 	movl   $0x0,-0x88(%ebp)
  102afa:	00 00 00 
  102afd:	89 4d d8             	mov    %ecx,-0x28(%ebp)
  102b00:	8b 5d e0             	mov    -0x20(%ebp),%ebx
  102b03:	eb 22                	jmp    102b27 <_ZN5Dinic3DFSEii+0x1ab>
  102b05:	8d 76 00             	lea    0x0(%esi),%esi
  102b08:	8b 42 18             	mov    0x18(%edx),%eax
  102b0b:	8b 7d d8             	mov    -0x28(%ebp),%edi
  102b0e:	8b 04 b8             	mov    (%eax,%edi,4),%eax
  102b11:	89 45 d8             	mov    %eax,-0x28(%ebp)
  102b14:	40                   	inc    %eax
  102b15:	0f 84 9a 04 00 00    	je     102fb5 <_ZN5Dinic3DFSEii+0x639>
  102b1b:	8b 5a 10             	mov    0x10(%edx),%ebx
  102b1e:	8b 7a 1c             	mov    0x1c(%edx),%edi
  102b21:	8b 45 cc             	mov    -0x34(%ebp),%eax
  102b24:	8b 34 07             	mov    (%edi,%eax,1),%esi
  102b27:	8b 45 d8             	mov    -0x28(%ebp),%eax
  102b2a:	c1 e0 04             	shl    $0x4,%eax
  102b2d:	01 d8                	add    %ebx,%eax
  102b2f:	89 45 ac             	mov    %eax,-0x54(%ebp)
  102b32:	8b 40 04             	mov    0x4(%eax),%eax
  102b35:	8d 0c 85 00 00 00 00 	lea    0x0(,%eax,4),%ecx
  102b3c:	89 4d bc             	mov    %ecx,-0x44(%ebp)
  102b3f:	8b 0c 0f             	mov    (%edi,%ecx,1),%ecx
  102b42:	89 4d c4             	mov    %ecx,-0x3c(%ebp)
  102b45:	46                   	inc    %esi
  102b46:	39 ce                	cmp    %ecx,%esi
  102b48:	75 be                	jne    102b08 <_ZN5Dinic3DFSEii+0x18c>
  102b4a:	8b 4d ac             	mov    -0x54(%ebp),%ecx
  102b4d:	8b 71 08             	mov    0x8(%ecx),%esi
  102b50:	2b 71 0c             	sub    0xc(%ecx),%esi
  102b53:	89 75 80             	mov    %esi,-0x80(%ebp)
  102b56:	8b 4d 94             	mov    -0x6c(%ebp),%ecx
  102b59:	39 ce                	cmp    %ecx,%esi
  102b5b:	7e 03                	jle    102b60 <_ZN5Dinic3DFSEii+0x1e4>
  102b5d:	89 4d 80             	mov    %ecx,-0x80(%ebp)
  102b60:	3b 42 0c             	cmp    0xc(%edx),%eax
  102b63:	0f 84 8b 04 00 00    	je     102ff4 <_ZN5Dinic3DFSEii+0x678>
  102b69:	8b 45 80             	mov    -0x80(%ebp),%eax
  102b6c:	85 c0                	test   %eax,%eax
  102b6e:	74 98                	je     102b08 <_ZN5Dinic3DFSEii+0x18c>
  102b70:	8b 42 20             	mov    0x20(%edx),%eax
  102b73:	8b 4d bc             	mov    -0x44(%ebp),%ecx
  102b76:	8b 34 08             	mov    (%eax,%ecx,1),%esi
  102b79:	83 fe ff             	cmp    $0xffffffff,%esi
  102b7c:	74 8a                	je     102b08 <_ZN5Dinic3DFSEii+0x18c>
  102b7e:	c7 85 68 ff ff ff 00 	movl   $0x0,-0x98(%ebp)
  102b85:	00 00 00 
  102b88:	89 75 d0             	mov    %esi,-0x30(%ebp)
  102b8b:	89 5d e0             	mov    %ebx,-0x20(%ebp)
  102b8e:	8b 4d c4             	mov    -0x3c(%ebp),%ecx
  102b91:	eb 23                	jmp    102bb6 <_ZN5Dinic3DFSEii+0x23a>
  102b93:	90                   	nop
  102b94:	8b 42 18             	mov    0x18(%edx),%eax
  102b97:	8b 5d d0             	mov    -0x30(%ebp),%ebx
  102b9a:	8b 04 98             	mov    (%eax,%ebx,4),%eax
  102b9d:	89 45 d0             	mov    %eax,-0x30(%ebp)
  102ba0:	40                   	inc    %eax
  102ba1:	0f 84 56 04 00 00    	je     102ffd <_ZN5Dinic3DFSEii+0x681>
  102ba7:	8b 42 10             	mov    0x10(%edx),%eax
  102baa:	89 45 e0             	mov    %eax,-0x20(%ebp)
  102bad:	8b 7a 1c             	mov    0x1c(%edx),%edi
  102bb0:	8b 45 bc             	mov    -0x44(%ebp),%eax
  102bb3:	8b 0c 07             	mov    (%edi,%eax,1),%ecx
  102bb6:	8b 45 d0             	mov    -0x30(%ebp),%eax
  102bb9:	c1 e0 04             	shl    $0x4,%eax
  102bbc:	03 45 e0             	add    -0x20(%ebp),%eax
  102bbf:	89 45 98             	mov    %eax,-0x68(%ebp)
  102bc2:	8b 40 04             	mov    0x4(%eax),%eax
  102bc5:	8d 34 85 00 00 00 00 	lea    0x0(,%eax,4),%esi
  102bcc:	89 75 b0             	mov    %esi,-0x50(%ebp)
  102bcf:	8b 34 37             	mov    (%edi,%esi,1),%esi
  102bd2:	41                   	inc    %ecx
  102bd3:	39 f1                	cmp    %esi,%ecx
  102bd5:	75 bd                	jne    102b94 <_ZN5Dinic3DFSEii+0x218>
  102bd7:	8b 5d 98             	mov    -0x68(%ebp),%ebx
  102bda:	8b 4b 08             	mov    0x8(%ebx),%ecx
  102bdd:	2b 4b 0c             	sub    0xc(%ebx),%ecx
  102be0:	89 8d 70 ff ff ff    	mov    %ecx,-0x90(%ebp)
  102be6:	8b 5d 80             	mov    -0x80(%ebp),%ebx
  102be9:	39 d9                	cmp    %ebx,%ecx
  102beb:	0f 8f 6f 04 00 00    	jg     103060 <_ZN5Dinic3DFSEii+0x6e4>
  102bf1:	3b 42 0c             	cmp    0xc(%edx),%eax
  102bf4:	0f 84 72 04 00 00    	je     10306c <_ZN5Dinic3DFSEii+0x6f0>
  102bfa:	8b 85 70 ff ff ff    	mov    -0x90(%ebp),%eax
  102c00:	85 c0                	test   %eax,%eax
  102c02:	74 90                	je     102b94 <_ZN5Dinic3DFSEii+0x218>
  102c04:	8b 42 20             	mov    0x20(%edx),%eax
  102c07:	8b 5d b0             	mov    -0x50(%ebp),%ebx
  102c0a:	8b 0c 18             	mov    (%eax,%ebx,1),%ecx
  102c0d:	83 f9 ff             	cmp    $0xffffffff,%ecx
  102c10:	74 82                	je     102b94 <_ZN5Dinic3DFSEii+0x218>
  102c12:	c7 85 5c ff ff ff 00 	movl   $0x0,-0xa4(%ebp)
  102c19:	00 00 00 
  102c1c:	89 4d c4             	mov    %ecx,-0x3c(%ebp)
  102c1f:	eb 25                	jmp    102c46 <_ZN5Dinic3DFSEii+0x2ca>
  102c21:	8d 76 00             	lea    0x0(%esi),%esi
  102c24:	8b 42 18             	mov    0x18(%edx),%eax
  102c27:	8b 5d c4             	mov    -0x3c(%ebp),%ebx
  102c2a:	8b 04 98             	mov    (%eax,%ebx,4),%eax
  102c2d:	89 45 c4             	mov    %eax,-0x3c(%ebp)
  102c30:	40                   	inc    %eax
  102c31:	0f 84 41 04 00 00    	je     103078 <_ZN5Dinic3DFSEii+0x6fc>
  102c37:	8b 42 10             	mov    0x10(%edx),%eax
  102c3a:	89 45 e0             	mov    %eax,-0x20(%ebp)
  102c3d:	8b 7a 1c             	mov    0x1c(%edx),%edi
  102c40:	8b 45 b0             	mov    -0x50(%ebp),%eax
  102c43:	8b 34 07             	mov    (%edi,%eax,1),%esi
  102c46:	8b 45 c4             	mov    -0x3c(%ebp),%eax
  102c49:	c1 e0 04             	shl    $0x4,%eax
  102c4c:	03 45 e0             	add    -0x20(%ebp),%eax
  102c4f:	89 45 84             	mov    %eax,-0x7c(%ebp)
  102c52:	8b 40 04             	mov    0x4(%eax),%eax
  102c55:	8d 0c 85 00 00 00 00 	lea    0x0(,%eax,4),%ecx
  102c5c:	89 4d 9c             	mov    %ecx,-0x64(%ebp)
  102c5f:	8b 0c 0f             	mov    (%edi,%ecx,1),%ecx
  102c62:	46                   	inc    %esi
  102c63:	39 ce                	cmp    %ecx,%esi
  102c65:	75 bd                	jne    102c24 <_ZN5Dinic3DFSEii+0x2a8>
  102c67:	8b 5d 84             	mov    -0x7c(%ebp),%ebx
  102c6a:	8b 73 08             	mov    0x8(%ebx),%esi
  102c6d:	2b 73 0c             	sub    0xc(%ebx),%esi
  102c70:	89 b5 60 ff ff ff    	mov    %esi,-0xa0(%ebp)
  102c76:	8b 9d 70 ff ff ff    	mov    -0x90(%ebp),%ebx
  102c7c:	39 de                	cmp    %ebx,%esi
  102c7e:	7e 06                	jle    102c86 <_ZN5Dinic3DFSEii+0x30a>
  102c80:	89 9d 60 ff ff ff    	mov    %ebx,-0xa0(%ebp)
  102c86:	3b 42 0c             	cmp    0xc(%edx),%eax
  102c89:	0f 84 f9 04 00 00    	je     103188 <_ZN5Dinic3DFSEii+0x80c>
  102c8f:	8b 85 60 ff ff ff    	mov    -0xa0(%ebp),%eax
  102c95:	85 c0                	test   %eax,%eax
  102c97:	74 8b                	je     102c24 <_ZN5Dinic3DFSEii+0x2a8>
  102c99:	8b 42 20             	mov    0x20(%edx),%eax
  102c9c:	8b 5d 9c             	mov    -0x64(%ebp),%ebx
  102c9f:	8b 34 18             	mov    (%eax,%ebx,1),%esi
  102ca2:	83 fe ff             	cmp    $0xffffffff,%esi
  102ca5:	0f 84 79 ff ff ff    	je     102c24 <_ZN5Dinic3DFSEii+0x2a8>
  102cab:	c7 85 50 ff ff ff 00 	movl   $0x0,-0xb0(%ebp)
  102cb2:	00 00 00 
  102cb5:	89 75 b4             	mov    %esi,-0x4c(%ebp)
  102cb8:	89 fb                	mov    %edi,%ebx
  102cba:	89 c8                	mov    %ecx,%eax
  102cbc:	89 d1                	mov    %edx,%ecx
  102cbe:	eb 22                	jmp    102ce2 <_ZN5Dinic3DFSEii+0x366>
  102cc0:	8b 41 18             	mov    0x18(%ecx),%eax
  102cc3:	8b 7d b4             	mov    -0x4c(%ebp),%edi
  102cc6:	8b 04 b8             	mov    (%eax,%edi,4),%eax
  102cc9:	89 45 b4             	mov    %eax,-0x4c(%ebp)
  102ccc:	40                   	inc    %eax
  102ccd:	0f 84 e5 03 00 00    	je     1030b8 <_ZN5Dinic3DFSEii+0x73c>
  102cd3:	8b 41 10             	mov    0x10(%ecx),%eax
  102cd6:	89 45 e0             	mov    %eax,-0x20(%ebp)
  102cd9:	8b 59 1c             	mov    0x1c(%ecx),%ebx
  102cdc:	8b 45 9c             	mov    -0x64(%ebp),%eax
  102cdf:	8b 04 03             	mov    (%ebx,%eax,1),%eax
  102ce2:	8b 55 b4             	mov    -0x4c(%ebp),%edx
  102ce5:	c1 e2 04             	shl    $0x4,%edx
  102ce8:	03 55 e0             	add    -0x20(%ebp),%edx
  102ceb:	89 95 74 ff ff ff    	mov    %edx,-0x8c(%ebp)
  102cf1:	8b 52 04             	mov    0x4(%edx),%edx
  102cf4:	8d 34 95 00 00 00 00 	lea    0x0(,%edx,4),%esi
  102cfb:	89 75 8c             	mov    %esi,-0x74(%ebp)
  102cfe:	8b 34 33             	mov    (%ebx,%esi,1),%esi
  102d01:	40                   	inc    %eax
  102d02:	39 f0                	cmp    %esi,%eax
  102d04:	75 ba                	jne    102cc0 <_ZN5Dinic3DFSEii+0x344>
  102d06:	8b bd 74 ff ff ff    	mov    -0x8c(%ebp),%edi
  102d0c:	8b 47 08             	mov    0x8(%edi),%eax
  102d0f:	2b 47 0c             	sub    0xc(%edi),%eax
  102d12:	89 85 54 ff ff ff    	mov    %eax,-0xac(%ebp)
  102d18:	8b bd 60 ff ff ff    	mov    -0xa0(%ebp),%edi
  102d1e:	39 f8                	cmp    %edi,%eax
  102d20:	7e 06                	jle    102d28 <_ZN5Dinic3DFSEii+0x3ac>
  102d22:	89 bd 54 ff ff ff    	mov    %edi,-0xac(%ebp)
  102d28:	3b 51 0c             	cmp    0xc(%ecx),%edx
  102d2b:	0f 84 73 04 00 00    	je     1031a4 <_ZN5Dinic3DFSEii+0x828>
  102d31:	8b 85 54 ff ff ff    	mov    -0xac(%ebp),%eax
  102d37:	85 c0                	test   %eax,%eax
  102d39:	74 85                	je     102cc0 <_ZN5Dinic3DFSEii+0x344>
  102d3b:	8b 41 20             	mov    0x20(%ecx),%eax
  102d3e:	8b 55 8c             	mov    -0x74(%ebp),%edx
  102d41:	8b 04 10             	mov    (%eax,%edx,1),%eax
  102d44:	89 45 a4             	mov    %eax,-0x5c(%ebp)
  102d47:	40                   	inc    %eax
  102d48:	0f 84 72 ff ff ff    	je     102cc0 <_ZN5Dinic3DFSEii+0x344>
  102d4e:	c7 85 48 ff ff ff 00 	movl   $0x0,-0xb8(%ebp)
  102d55:	00 00 00 
  102d58:	89 f0                	mov    %esi,%eax
  102d5a:	89 ce                	mov    %ecx,%esi
  102d5c:	eb 24                	jmp    102d82 <_ZN5Dinic3DFSEii+0x406>
  102d5e:	66 90                	xchg   %ax,%ax
  102d60:	8b 46 18             	mov    0x18(%esi),%eax
  102d63:	8b 7d a4             	mov    -0x5c(%ebp),%edi
  102d66:	8b 04 b8             	mov    (%eax,%edi,4),%eax
  102d69:	89 45 a4             	mov    %eax,-0x5c(%ebp)
  102d6c:	40                   	inc    %eax
  102d6d:	0f 84 a9 03 00 00    	je     10311c <_ZN5Dinic3DFSEii+0x7a0>
  102d73:	8b 46 10             	mov    0x10(%esi),%eax
  102d76:	89 45 e0             	mov    %eax,-0x20(%ebp)
  102d79:	8b 5e 1c             	mov    0x1c(%esi),%ebx
  102d7c:	8b 45 8c             	mov    -0x74(%ebp),%eax
  102d7f:	8b 04 03             	mov    (%ebx,%eax,1),%eax
  102d82:	8b 55 a4             	mov    -0x5c(%ebp),%edx
  102d85:	c1 e2 04             	shl    $0x4,%edx
  102d88:	03 55 e0             	add    -0x20(%ebp),%edx
  102d8b:	89 95 64 ff ff ff    	mov    %edx,-0x9c(%ebp)
  102d91:	8b 52 04             	mov    0x4(%edx),%edx
  102d94:	8d 0c 95 00 00 00 00 	lea    0x0(,%edx,4),%ecx
  102d9b:	89 8d 7c ff ff ff    	mov    %ecx,-0x84(%ebp)
  102da1:	8b 0c 0b             	mov    (%ebx,%ecx,1),%ecx
  102da4:	40                   	inc    %eax
  102da5:	39 c8                	cmp    %ecx,%eax
  102da7:	75 b7                	jne    102d60 <_ZN5Dinic3DFSEii+0x3e4>
  102da9:	8b bd 64 ff ff ff    	mov    -0x9c(%ebp),%edi
  102daf:	8b 47 08             	mov    0x8(%edi),%eax
  102db2:	2b 47 0c             	sub    0xc(%edi),%eax
  102db5:	89 85 4c ff ff ff    	mov    %eax,-0xb4(%ebp)
  102dbb:	8b bd 54 ff ff ff    	mov    -0xac(%ebp),%edi
  102dc1:	39 f8                	cmp    %edi,%eax
  102dc3:	7e 06                	jle    102dcb <_ZN5Dinic3DFSEii+0x44f>
  102dc5:	89 bd 4c ff ff ff    	mov    %edi,-0xb4(%ebp)
  102dcb:	3b 56 0c             	cmp    0xc(%esi),%edx
  102dce:	0f 84 24 03 00 00    	je     1030f8 <_ZN5Dinic3DFSEii+0x77c>
  102dd4:	8b bd 4c ff ff ff    	mov    -0xb4(%ebp),%edi
  102dda:	85 ff                	test   %edi,%edi
  102ddc:	74 82                	je     102d60 <_ZN5Dinic3DFSEii+0x3e4>
  102dde:	8b 46 20             	mov    0x20(%esi),%eax
  102de1:	8b 95 7c ff ff ff    	mov    -0x84(%ebp),%edx
  102de7:	8b 04 10             	mov    (%eax,%edx,1),%eax
  102dea:	89 45 90             	mov    %eax,-0x70(%ebp)
  102ded:	40                   	inc    %eax
  102dee:	0f 84 6c ff ff ff    	je     102d60 <_ZN5Dinic3DFSEii+0x3e4>
  102df4:	c7 85 40 ff ff ff 00 	movl   $0x0,-0xc0(%ebp)
  102dfb:	00 00 00 
  102dfe:	89 ca                	mov    %ecx,%edx
  102e00:	eb 27                	jmp    102e29 <_ZN5Dinic3DFSEii+0x4ad>
  102e02:	66 90                	xchg   %ax,%ax
  102e04:	8b 46 18             	mov    0x18(%esi),%eax
  102e07:	8b 5d 90             	mov    -0x70(%ebp),%ebx
  102e0a:	8b 04 98             	mov    (%eax,%ebx,4),%eax
  102e0d:	89 45 90             	mov    %eax,-0x70(%ebp)
  102e10:	40                   	inc    %eax
  102e11:	0f 84 ed 02 00 00    	je     103104 <_ZN5Dinic3DFSEii+0x788>
  102e17:	8b 46 10             	mov    0x10(%esi),%eax
  102e1a:	89 45 e0             	mov    %eax,-0x20(%ebp)
  102e1d:	8b 5e 1c             	mov    0x1c(%esi),%ebx
  102e20:	8b 85 7c ff ff ff    	mov    -0x84(%ebp),%eax
  102e26:	8b 14 03             	mov    (%ebx,%eax,1),%edx
  102e29:	8b 45 90             	mov    -0x70(%ebp),%eax
  102e2c:	c1 e0 04             	shl    $0x4,%eax
  102e2f:	03 45 e0             	add    -0x20(%ebp),%eax
  102e32:	89 85 58 ff ff ff    	mov    %eax,-0xa8(%ebp)
  102e38:	8b 48 04             	mov    0x4(%eax),%ecx
  102e3b:	8d 04 8d 00 00 00 00 	lea    0x0(,%ecx,4),%eax
  102e42:	89 85 6c ff ff ff    	mov    %eax,-0x94(%ebp)
  102e48:	8b 04 03             	mov    (%ebx,%eax,1),%eax
  102e4b:	42                   	inc    %edx
  102e4c:	39 c2                	cmp    %eax,%edx
  102e4e:	75 b4                	jne    102e04 <_ZN5Dinic3DFSEii+0x488>
  102e50:	8b bd 58 ff ff ff    	mov    -0xa8(%ebp),%edi
  102e56:	8b 57 08             	mov    0x8(%edi),%edx
  102e59:	2b 57 0c             	sub    0xc(%edi),%edx
  102e5c:	89 95 44 ff ff ff    	mov    %edx,-0xbc(%ebp)
  102e62:	8b bd 4c ff ff ff    	mov    -0xb4(%ebp),%edi
  102e68:	39 fa                	cmp    %edi,%edx
  102e6a:	7e 06                	jle    102e72 <_ZN5Dinic3DFSEii+0x4f6>
  102e6c:	89 bd 44 ff ff ff    	mov    %edi,-0xbc(%ebp)
  102e72:	3b 4e 0c             	cmp    0xc(%esi),%ecx
  102e75:	0f 84 e9 02 00 00    	je     103164 <_ZN5Dinic3DFSEii+0x7e8>
  102e7b:	8b 95 44 ff ff ff    	mov    -0xbc(%ebp),%edx
  102e81:	85 d2                	test   %edx,%edx
  102e83:	0f 84 7b ff ff ff    	je     102e04 <_ZN5Dinic3DFSEii+0x488>
  102e89:	8b 56 20             	mov    0x20(%esi),%edx
  102e8c:	8b bd 6c ff ff ff    	mov    -0x94(%ebp),%edi
  102e92:	8b 0c 3a             	mov    (%edx,%edi,1),%ecx
  102e95:	83 f9 ff             	cmp    $0xffffffff,%ecx
  102e98:	0f 84 66 ff ff ff    	je     102e04 <_ZN5Dinic3DFSEii+0x488>
  102e9e:	c7 85 3c ff ff ff 00 	movl   $0x0,-0xc4(%ebp)
  102ea5:	00 00 00 
  102ea8:	8b 7d e0             	mov    -0x20(%ebp),%edi
  102eab:	89 da                	mov    %ebx,%edx
  102ead:	89 cb                	mov    %ecx,%ebx
  102eaf:	eb 21                	jmp    102ed2 <_ZN5Dinic3DFSEii+0x556>
  102eb1:	8d 76 00             	lea    0x0(%esi),%esi
  102eb4:	8b 46 18             	mov    0x18(%esi),%eax
  102eb7:	8b 1c 98             	mov    (%eax,%ebx,4),%ebx
  102eba:	83 fb ff             	cmp    $0xffffffff,%ebx
  102ebd:	0f 84 ad 02 00 00    	je     103170 <_ZN5Dinic3DFSEii+0x7f4>
  102ec3:	8b 7e 10             	mov    0x10(%esi),%edi
  102ec6:	8b 56 1c             	mov    0x1c(%esi),%edx
  102ec9:	8b 85 6c ff ff ff    	mov    -0x94(%ebp),%eax
  102ecf:	8b 04 02             	mov    (%edx,%eax,1),%eax
  102ed2:	89 d9                	mov    %ebx,%ecx
  102ed4:	c1 e1 04             	shl    $0x4,%ecx
  102ed7:	01 cf                	add    %ecx,%edi
  102ed9:	8b 4f 04             	mov    0x4(%edi),%ecx
  102edc:	40                   	inc    %eax
  102edd:	3b 04 8a             	cmp    (%edx,%ecx,4),%eax
  102ee0:	75 d2                	jne    102eb4 <_ZN5Dinic3DFSEii+0x538>
  102ee2:	50                   	push   %eax
  102ee3:	8b 47 08             	mov    0x8(%edi),%eax
  102ee6:	2b 47 0c             	sub    0xc(%edi),%eax
  102ee9:	8b 95 44 ff ff ff    	mov    -0xbc(%ebp),%edx
  102eef:	39 d0                	cmp    %edx,%eax
  102ef1:	0f 8f a5 02 00 00    	jg     10319c <_ZN5Dinic3DFSEii+0x820>
  102ef7:	50                   	push   %eax
  102ef8:	51                   	push   %ecx
  102ef9:	56                   	push   %esi
  102efa:	e8 7d fa ff ff       	call   10297c <_ZN5Dinic3DFSEii>
  102eff:	83 c4 10             	add    $0x10,%esp
  102f02:	85 c0                	test   %eax,%eax
  102f04:	7e ae                	jle    102eb4 <_ZN5Dinic3DFSEii+0x538>
  102f06:	01 47 0c             	add    %eax,0xc(%edi)
  102f09:	8b 56 10             	mov    0x10(%esi),%edx
  102f0c:	89 d9                	mov    %ebx,%ecx
  102f0e:	83 f1 01             	xor    $0x1,%ecx
  102f11:	c1 e1 04             	shl    $0x4,%ecx
  102f14:	29 44 0a 0c          	sub    %eax,0xc(%edx,%ecx,1)
  102f18:	01 85 3c ff ff ff    	add    %eax,-0xc4(%ebp)
  102f1e:	29 85 44 ff ff ff    	sub    %eax,-0xbc(%ebp)
  102f24:	75 8e                	jne    102eb4 <_ZN5Dinic3DFSEii+0x538>
  102f26:	66 90                	xchg   %ax,%ax
  102f28:	8b 85 58 ff ff ff    	mov    -0xa8(%ebp),%eax
  102f2e:	8b 9d 3c ff ff ff    	mov    -0xc4(%ebp),%ebx
  102f34:	01 58 0c             	add    %ebx,0xc(%eax)
  102f37:	8b 45 90             	mov    -0x70(%ebp),%eax
  102f3a:	83 f0 01             	xor    $0x1,%eax
  102f3d:	c1 e0 04             	shl    $0x4,%eax
  102f40:	29 5c 02 0c          	sub    %ebx,0xc(%edx,%eax,1)
  102f44:	01 9d 40 ff ff ff    	add    %ebx,-0xc0(%ebp)
  102f4a:	29 9d 4c ff ff ff    	sub    %ebx,-0xb4(%ebp)
  102f50:	0f 85 ae fe ff ff    	jne    102e04 <_ZN5Dinic3DFSEii+0x488>
  102f56:	66 90                	xchg   %ax,%ax
  102f58:	8b 85 64 ff ff ff    	mov    -0x9c(%ebp),%eax
  102f5e:	8b 9d 40 ff ff ff    	mov    -0xc0(%ebp),%ebx
  102f64:	01 58 0c             	add    %ebx,0xc(%eax)
  102f67:	8b 45 a4             	mov    -0x5c(%ebp),%eax
  102f6a:	83 f0 01             	xor    $0x1,%eax
  102f6d:	c1 e0 04             	shl    $0x4,%eax
  102f70:	29 5c 02 0c          	sub    %ebx,0xc(%edx,%eax,1)
  102f74:	01 9d 48 ff ff ff    	add    %ebx,-0xb8(%ebp)
  102f7a:	29 9d 54 ff ff ff    	sub    %ebx,-0xac(%ebp)
  102f80:	0f 85 da fd ff ff    	jne    102d60 <_ZN5Dinic3DFSEii+0x3e4>
  102f86:	89 d3                	mov    %edx,%ebx
  102f88:	89 f1                	mov    %esi,%ecx
  102f8a:	e9 a0 01 00 00       	jmp    10312f <_ZN5Dinic3DFSEii+0x7b3>
  102f8f:	90                   	nop
  102f90:	8b 45 10             	mov    0x10(%ebp),%eax
  102f93:	89 45 a8             	mov    %eax,-0x58(%ebp)
  102f96:	3b 57 0c             	cmp    0xc(%edi),%edx
  102f99:	0f 85 b4 fa ff ff    	jne    102a53 <_ZN5Dinic3DFSEii+0xd7>
  102f9f:	8b 45 a8             	mov    -0x58(%ebp),%eax
  102fa2:	89 45 88             	mov    %eax,-0x78(%ebp)
  102fa5:	e9 20 fa ff ff       	jmp    1029ca <_ZN5Dinic3DFSEii+0x4e>
  102faa:	66 90                	xchg   %ax,%ax
  102fac:	8b 45 94             	mov    -0x6c(%ebp),%eax
  102faf:	89 85 78 ff ff ff    	mov    %eax,-0x88(%ebp)
  102fb5:	8b 8d 78 ff ff ff    	mov    -0x88(%ebp),%ecx
  102fbb:	85 c9                	test   %ecx,%ecx
  102fbd:	0f 8e b9 fa ff ff    	jle    102a7c <_ZN5Dinic3DFSEii+0x100>
  102fc3:	8b 5a 10             	mov    0x10(%edx),%ebx
  102fc6:	8b 45 b8             	mov    -0x48(%ebp),%eax
  102fc9:	8b bd 78 ff ff ff    	mov    -0x88(%ebp),%edi
  102fcf:	01 78 0c             	add    %edi,0xc(%eax)
  102fd2:	8b 45 dc             	mov    -0x24(%ebp),%eax
  102fd5:	83 f0 01             	xor    $0x1,%eax
  102fd8:	c1 e0 04             	shl    $0x4,%eax
  102fdb:	29 7c 03 0c          	sub    %edi,0xc(%ebx,%eax,1)
  102fdf:	01 7d 88             	add    %edi,-0x78(%ebp)
  102fe2:	29 7d a8             	sub    %edi,-0x58(%ebp)
  102fe5:	0f 85 91 fa ff ff    	jne    102a7c <_ZN5Dinic3DFSEii+0x100>
  102feb:	89 d9                	mov    %ebx,%ecx
  102fed:	89 d7                	mov    %edx,%edi
  102fef:	e9 e2 f9 ff ff       	jmp    1029d6 <_ZN5Dinic3DFSEii+0x5a>
  102ff4:	8b 45 80             	mov    -0x80(%ebp),%eax
  102ff7:	89 85 68 ff ff ff    	mov    %eax,-0x98(%ebp)
  102ffd:	8b 9d 68 ff ff ff    	mov    -0x98(%ebp),%ebx
  103003:	85 db                	test   %ebx,%ebx
  103005:	0f 8e fd fa ff ff    	jle    102b08 <_ZN5Dinic3DFSEii+0x18c>
  10300b:	8b 5a 10             	mov    0x10(%edx),%ebx
  10300e:	8b 45 ac             	mov    -0x54(%ebp),%eax
  103011:	8b bd 68 ff ff ff    	mov    -0x98(%ebp),%edi
  103017:	01 78 0c             	add    %edi,0xc(%eax)
  10301a:	8b 45 d8             	mov    -0x28(%ebp),%eax
  10301d:	83 f0 01             	xor    $0x1,%eax
  103020:	c1 e0 04             	shl    $0x4,%eax
  103023:	29 7c 03 0c          	sub    %edi,0xc(%ebx,%eax,1)
  103027:	01 bd 78 ff ff ff    	add    %edi,-0x88(%ebp)
  10302d:	29 7d 94             	sub    %edi,-0x6c(%ebp)
  103030:	0f 85 d2 fa ff ff    	jne    102b08 <_ZN5Dinic3DFSEii+0x18c>
  103036:	eb 8e                	jmp    102fc6 <_ZN5Dinic3DFSEii+0x64a>
  103038:	c7 45 a0 00 00 00 00 	movl   $0x0,-0x60(%ebp)
  10303f:	8b 45 a0             	mov    -0x60(%ebp),%eax
  103042:	8d 65 f4             	lea    -0xc(%ebp),%esp
  103045:	5b                   	pop    %ebx
  103046:	5e                   	pop    %esi
  103047:	5f                   	pop    %edi
  103048:	5d                   	pop    %ebp
  103049:	c3                   	ret    
  10304a:	66 90                	xchg   %ax,%ax
  10304c:	8b 45 10             	mov    0x10(%ebp),%eax
  10304f:	89 45 a0             	mov    %eax,-0x60(%ebp)
  103052:	8b 45 a0             	mov    -0x60(%ebp),%eax
  103055:	8d 65 f4             	lea    -0xc(%ebp),%esp
  103058:	5b                   	pop    %ebx
  103059:	5e                   	pop    %esi
  10305a:	5f                   	pop    %edi
  10305b:	5d                   	pop    %ebp
  10305c:	c3                   	ret    
  10305d:	8d 76 00             	lea    0x0(%esi),%esi
  103060:	89 9d 70 ff ff ff    	mov    %ebx,-0x90(%ebp)
  103066:	e9 86 fb ff ff       	jmp    102bf1 <_ZN5Dinic3DFSEii+0x275>
  10306b:	90                   	nop
  10306c:	8b 85 70 ff ff ff    	mov    -0x90(%ebp),%eax
  103072:	89 85 5c ff ff ff    	mov    %eax,-0xa4(%ebp)
  103078:	8b b5 5c ff ff ff    	mov    -0xa4(%ebp),%esi
  10307e:	85 f6                	test   %esi,%esi
  103080:	0f 8e 0e fb ff ff    	jle    102b94 <_ZN5Dinic3DFSEii+0x218>
  103086:	8b 5a 10             	mov    0x10(%edx),%ebx
  103089:	8b 45 98             	mov    -0x68(%ebp),%eax
  10308c:	8b bd 5c ff ff ff    	mov    -0xa4(%ebp),%edi
  103092:	01 78 0c             	add    %edi,0xc(%eax)
  103095:	8b 45 d0             	mov    -0x30(%ebp),%eax
  103098:	83 f0 01             	xor    $0x1,%eax
  10309b:	c1 e0 04             	shl    $0x4,%eax
  10309e:	29 7c 03 0c          	sub    %edi,0xc(%ebx,%eax,1)
  1030a2:	01 bd 68 ff ff ff    	add    %edi,-0x98(%ebp)
  1030a8:	29 7d 80             	sub    %edi,-0x80(%ebp)
  1030ab:	0f 85 e3 fa ff ff    	jne    102b94 <_ZN5Dinic3DFSEii+0x218>
  1030b1:	e9 58 ff ff ff       	jmp    10300e <_ZN5Dinic3DFSEii+0x692>
  1030b6:	66 90                	xchg   %ax,%ax
  1030b8:	89 ca                	mov    %ecx,%edx
  1030ba:	8b bd 50 ff ff ff    	mov    -0xb0(%ebp),%edi
  1030c0:	85 ff                	test   %edi,%edi
  1030c2:	0f 8e 5c fb ff ff    	jle    102c24 <_ZN5Dinic3DFSEii+0x2a8>
  1030c8:	8b 5a 10             	mov    0x10(%edx),%ebx
  1030cb:	8b 45 84             	mov    -0x7c(%ebp),%eax
  1030ce:	8b bd 50 ff ff ff    	mov    -0xb0(%ebp),%edi
  1030d4:	01 78 0c             	add    %edi,0xc(%eax)
  1030d7:	8b 45 c4             	mov    -0x3c(%ebp),%eax
  1030da:	83 f0 01             	xor    $0x1,%eax
  1030dd:	c1 e0 04             	shl    $0x4,%eax
  1030e0:	29 7c 03 0c          	sub    %edi,0xc(%ebx,%eax,1)
  1030e4:	01 bd 5c ff ff ff    	add    %edi,-0xa4(%ebp)
  1030ea:	29 bd 70 ff ff ff    	sub    %edi,-0x90(%ebp)
  1030f0:	0f 85 2e fb ff ff    	jne    102c24 <_ZN5Dinic3DFSEii+0x2a8>
  1030f6:	eb 91                	jmp    103089 <_ZN5Dinic3DFSEii+0x70d>
  1030f8:	8b 85 4c ff ff ff    	mov    -0xb4(%ebp),%eax
  1030fe:	89 85 40 ff ff ff    	mov    %eax,-0xc0(%ebp)
  103104:	8b 85 40 ff ff ff    	mov    -0xc0(%ebp),%eax
  10310a:	85 c0                	test   %eax,%eax
  10310c:	0f 8e 4e fc ff ff    	jle    102d60 <_ZN5Dinic3DFSEii+0x3e4>
  103112:	8b 56 10             	mov    0x10(%esi),%edx
  103115:	e9 3e fe ff ff       	jmp    102f58 <_ZN5Dinic3DFSEii+0x5dc>
  10311a:	66 90                	xchg   %ax,%ax
  10311c:	89 f1                	mov    %esi,%ecx
  10311e:	8b 85 48 ff ff ff    	mov    -0xb8(%ebp),%eax
  103124:	85 c0                	test   %eax,%eax
  103126:	0f 8e 94 fb ff ff    	jle    102cc0 <_ZN5Dinic3DFSEii+0x344>
  10312c:	8b 59 10             	mov    0x10(%ecx),%ebx
  10312f:	8b 85 74 ff ff ff    	mov    -0x8c(%ebp),%eax
  103135:	8b 95 48 ff ff ff    	mov    -0xb8(%ebp),%edx
  10313b:	01 50 0c             	add    %edx,0xc(%eax)
  10313e:	8b 45 b4             	mov    -0x4c(%ebp),%eax
  103141:	83 f0 01             	xor    $0x1,%eax
  103144:	c1 e0 04             	shl    $0x4,%eax
  103147:	29 54 03 0c          	sub    %edx,0xc(%ebx,%eax,1)
  10314b:	01 95 50 ff ff ff    	add    %edx,-0xb0(%ebp)
  103151:	29 95 60 ff ff ff    	sub    %edx,-0xa0(%ebp)
  103157:	0f 85 63 fb ff ff    	jne    102cc0 <_ZN5Dinic3DFSEii+0x344>
  10315d:	89 ca                	mov    %ecx,%edx
  10315f:	e9 67 ff ff ff       	jmp    1030cb <_ZN5Dinic3DFSEii+0x74f>
  103164:	8b 85 44 ff ff ff    	mov    -0xbc(%ebp),%eax
  10316a:	89 85 3c ff ff ff    	mov    %eax,-0xc4(%ebp)
  103170:	8b 85 3c ff ff ff    	mov    -0xc4(%ebp),%eax
  103176:	85 c0                	test   %eax,%eax
  103178:	0f 8e 86 fc ff ff    	jle    102e04 <_ZN5Dinic3DFSEii+0x488>
  10317e:	8b 56 10             	mov    0x10(%esi),%edx
  103181:	e9 a2 fd ff ff       	jmp    102f28 <_ZN5Dinic3DFSEii+0x5ac>
  103186:	66 90                	xchg   %ax,%ax
  103188:	8b 85 60 ff ff ff    	mov    -0xa0(%ebp),%eax
  10318e:	89 85 50 ff ff ff    	mov    %eax,-0xb0(%ebp)
  103194:	e9 21 ff ff ff       	jmp    1030ba <_ZN5Dinic3DFSEii+0x73e>
  103199:	8d 76 00             	lea    0x0(%esi),%esi
  10319c:	89 d0                	mov    %edx,%eax
  10319e:	e9 54 fd ff ff       	jmp    102ef7 <_ZN5Dinic3DFSEii+0x57b>
  1031a3:	90                   	nop
  1031a4:	8b 85 54 ff ff ff    	mov    -0xac(%ebp),%eax
  1031aa:	89 85 48 ff ff ff    	mov    %eax,-0xb8(%ebp)
  1031b0:	e9 69 ff ff ff       	jmp    10311e <_ZN5Dinic3DFSEii+0x7a2>
  1031b5:	66 90                	xchg   %ax,%ax
  1031b7:	90                   	nop

001031b8 <bench_dinic_prepare>:
  1031b8:	55                   	push   %ebp
  1031b9:	89 e5                	mov    %esp,%ebp
  1031bb:	57                   	push   %edi
  1031bc:	56                   	push   %esi
  1031bd:	53                   	push   %ebx
  1031be:	83 ec 48             	sub    $0x48,%esp
  1031c1:	a1 fc 57 10 00       	mov    0x1057fc,%eax
  1031c6:	8b 00                	mov    (%eax),%eax
  1031c8:	a3 2c 58 10 00       	mov    %eax,0x10582c
  1031cd:	6a 01                	push   $0x1
  1031cf:	e8 38 de ff ff       	call   10100c <bench_srand>
  1031d4:	a1 2c 58 10 00       	mov    0x10582c,%eax
  1031d9:	01 c0                	add    %eax,%eax
  1031db:	89 45 c4             	mov    %eax,-0x3c(%ebp)
  1031de:	40                   	inc    %eax
  1031df:	89 45 c8             	mov    %eax,-0x38(%ebp)
  1031e2:	c7 04 24 2c 00 00 00 	movl   $0x2c,(%esp)
  1031e9:	e8 9a dd ff ff       	call   100f88 <bench_alloc>
  1031ee:	89 c6                	mov    %eax,%esi
  1031f0:	a3 28 58 10 00       	mov    %eax,0x105828
  1031f5:	a1 2c 58 10 00       	mov    0x10582c,%eax
  1031fa:	8d 7c 00 02          	lea    0x2(%eax,%eax,1),%edi
  1031fe:	8d 4f fe             	lea    -0x2(%edi),%ecx
  103201:	89 c8                	mov    %ecx,%eax
  103203:	c1 e8 1f             	shr    $0x1f,%eax
  103206:	01 c8                	add    %ecx,%eax
  103208:	d1 f8                	sar    %eax
  10320a:	89 c1                	mov    %eax,%ecx
  10320c:	0f af c8             	imul   %eax,%ecx
  10320f:	01 c0                	add    %eax,%eax
  103211:	01 c8                	add    %ecx,%eax
  103213:	8d 14 00             	lea    (%eax,%eax,1),%edx
  103216:	89 55 e4             	mov    %edx,-0x1c(%ebp)
  103219:	c1 e0 05             	shl    $0x5,%eax
  10321c:	89 04 24             	mov    %eax,(%esp)
  10321f:	e8 64 dd ff ff       	call   100f88 <bench_alloc>
  103224:	89 46 10             	mov    %eax,0x10(%esi)
  103227:	8d 1c bd 00 00 00 00 	lea    0x0(,%edi,4),%ebx
  10322e:	89 1c 24             	mov    %ebx,(%esp)
  103231:	e8 52 dd ff ff       	call   100f88 <bench_alloc>
  103236:	89 46 14             	mov    %eax,0x14(%esi)
  103239:	8b 55 e4             	mov    -0x1c(%ebp),%edx
  10323c:	8d 04 95 00 00 00 00 	lea    0x0(,%edx,4),%eax
  103243:	89 04 24             	mov    %eax,(%esp)
  103246:	e8 3d dd ff ff       	call   100f88 <bench_alloc>
  10324b:	89 46 18             	mov    %eax,0x18(%esi)
  10324e:	89 3c 24             	mov    %edi,(%esp)
  103251:	e8 32 dd ff ff       	call   100f88 <bench_alloc>
  103256:	89 46 28             	mov    %eax,0x28(%esi)
  103259:	89 1c 24             	mov    %ebx,(%esp)
  10325c:	e8 27 dd ff ff       	call   100f88 <bench_alloc>
  103261:	89 46 1c             	mov    %eax,0x1c(%esi)
  103264:	89 1c 24             	mov    %ebx,(%esp)
  103267:	e8 1c dd ff ff       	call   100f88 <bench_alloc>
  10326c:	89 46 20             	mov    %eax,0x20(%esi)
  10326f:	89 1c 24             	mov    %ebx,(%esp)
  103272:	e8 11 dd ff ff       	call   100f88 <bench_alloc>
  103277:	89 46 24             	mov    %eax,0x24(%esi)
  10327a:	89 3e                	mov    %edi,(%esi)
  10327c:	83 c4 10             	add    $0x10,%esp
  10327f:	85 ff                	test   %edi,%edi
  103281:	7e 12                	jle    103295 <bench_dinic_prepare+0xdd>
  103283:	8b 46 14             	mov    0x14(%esi),%eax
  103286:	01 c3                	add    %eax,%ebx
  103288:	c7 00 ff ff ff ff    	movl   $0xffffffff,(%eax)
  10328e:	83 c0 04             	add    $0x4,%eax
  103291:	39 d8                	cmp    %ebx,%eax
  103293:	75 f3                	jne    103288 <bench_dinic_prepare+0xd0>
  103295:	c7 46 04 00 00 00 00 	movl   $0x0,0x4(%esi)
  10329c:	8b 15 2c 58 10 00    	mov    0x10582c,%edx
  1032a2:	85 d2                	test   %edx,%edx
  1032a4:	0f 8e 40 02 00 00    	jle    1034ea <bench_dinic_prepare+0x332>
  1032aa:	c7 45 d4 00 00 00 00 	movl   $0x0,-0x2c(%ebp)
  1032b1:	8d 76 00             	lea    0x0(%esi),%esi
  1032b4:	8b 45 d4             	mov    -0x2c(%ebp),%eax
  1032b7:	c1 e0 02             	shl    $0x2,%eax
  1032ba:	89 45 cc             	mov    %eax,-0x34(%ebp)
  1032bd:	c7 45 e4 00 00 00 00 	movl   $0x0,-0x1c(%ebp)
  1032c4:	8b 1d 28 58 10 00    	mov    0x105828,%ebx
  1032ca:	e8 51 dd ff ff       	call   101020 <bench_rand>
  1032cf:	bf 0a 00 00 00       	mov    $0xa,%edi
  1032d4:	31 d2                	xor    %edx,%edx
  1032d6:	f7 f7                	div    %edi
  1032d8:	a1 2c 58 10 00       	mov    0x10582c,%eax
  1032dd:	89 45 e0             	mov    %eax,-0x20(%ebp)
  1032e0:	85 d2                	test   %edx,%edx
  1032e2:	0f 84 88 00 00 00    	je     103370 <bench_dinic_prepare+0x1b8>
  1032e8:	8b 7d e4             	mov    -0x1c(%ebp),%edi
  1032eb:	01 c7                	add    %eax,%edi
  1032ed:	8b 4b 10             	mov    0x10(%ebx),%ecx
  1032f0:	8b 73 04             	mov    0x4(%ebx),%esi
  1032f3:	89 f0                	mov    %esi,%eax
  1032f5:	c1 e0 04             	shl    $0x4,%eax
  1032f8:	89 4d dc             	mov    %ecx,-0x24(%ebp)
  1032fb:	01 c8                	add    %ecx,%eax
  1032fd:	8b 4d d4             	mov    -0x2c(%ebp),%ecx
  103300:	89 08                	mov    %ecx,(%eax)
  103302:	89 78 04             	mov    %edi,0x4(%eax)
  103305:	89 50 08             	mov    %edx,0x8(%eax)
  103308:	c7 40 0c 00 00 00 00 	movl   $0x0,0xc(%eax)
  10330f:	8b 43 14             	mov    0x14(%ebx),%eax
  103312:	89 45 d8             	mov    %eax,-0x28(%ebp)
  103315:	8b 45 cc             	mov    -0x34(%ebp),%eax
  103318:	8b 55 d8             	mov    -0x28(%ebp),%edx
  10331b:	8d 0c 02             	lea    (%edx,%eax,1),%ecx
  10331e:	8b 43 18             	mov    0x18(%ebx),%eax
  103321:	89 c2                	mov    %eax,%edx
  103323:	8b 01                	mov    (%ecx),%eax
  103325:	89 55 d0             	mov    %edx,-0x30(%ebp)
  103328:	89 04 b2             	mov    %eax,(%edx,%esi,4)
  10332b:	8b 73 04             	mov    0x4(%ebx),%esi
  10332e:	8d 46 01             	lea    0x1(%esi),%eax
  103331:	89 43 04             	mov    %eax,0x4(%ebx)
  103334:	89 31                	mov    %esi,(%ecx)
  103336:	8b 4b 04             	mov    0x4(%ebx),%ecx
  103339:	89 ce                	mov    %ecx,%esi
  10333b:	c1 e6 04             	shl    $0x4,%esi
  10333e:	03 75 dc             	add    -0x24(%ebp),%esi
  103341:	89 3e                	mov    %edi,(%esi)
  103343:	8b 45 d4             	mov    -0x2c(%ebp),%eax
  103346:	89 46 04             	mov    %eax,0x4(%esi)
  103349:	c7 46 08 00 00 00 00 	movl   $0x0,0x8(%esi)
  103350:	c7 46 0c 00 00 00 00 	movl   $0x0,0xc(%esi)
  103357:	8b 45 d8             	mov    -0x28(%ebp),%eax
  10335a:	8d 14 b8             	lea    (%eax,%edi,4),%edx
  10335d:	8b 32                	mov    (%edx),%esi
  10335f:	8b 45 d0             	mov    -0x30(%ebp),%eax
  103362:	89 34 88             	mov    %esi,(%eax,%ecx,4)
  103365:	8b 43 04             	mov    0x4(%ebx),%eax
  103368:	8d 48 01             	lea    0x1(%eax),%ecx
  10336b:	89 4b 04             	mov    %ecx,0x4(%ebx)
  10336e:	89 02                	mov    %eax,(%edx)
  103370:	ff 45 e4             	incl   -0x1c(%ebp)
  103373:	8b 45 e4             	mov    -0x1c(%ebp),%eax
  103376:	39 45 e0             	cmp    %eax,-0x20(%ebp)
  103379:	0f 8f 45 ff ff ff    	jg     1032c4 <bench_dinic_prepare+0x10c>
  10337f:	ff 45 d4             	incl   -0x2c(%ebp)
  103382:	8b 45 d4             	mov    -0x2c(%ebp),%eax
  103385:	39 45 e0             	cmp    %eax,-0x20(%ebp)
  103388:	0f 8f 26 ff ff ff    	jg     1032b4 <bench_dinic_prepare+0xfc>
  10338e:	8b 45 e0             	mov    -0x20(%ebp),%eax
  103391:	85 c0                	test   %eax,%eax
  103393:	0f 8e 51 01 00 00    	jle    1034ea <bench_dinic_prepare+0x332>
  103399:	8b 45 c4             	mov    -0x3c(%ebp),%eax
  10339c:	c1 e0 02             	shl    $0x2,%eax
  10339f:	89 45 d0             	mov    %eax,-0x30(%ebp)
  1033a2:	8b 45 c8             	mov    -0x38(%ebp),%eax
  1033a5:	c1 e0 02             	shl    $0x2,%eax
  1033a8:	89 45 d4             	mov    %eax,-0x2c(%ebp)
  1033ab:	31 ff                	xor    %edi,%edi
  1033ad:	89 7d e4             	mov    %edi,-0x1c(%ebp)
  1033b0:	8b 1d 28 58 10 00    	mov    0x105828,%ebx
  1033b6:	e8 65 dc ff ff       	call   101020 <bench_rand>
  1033bb:	b9 e8 03 00 00       	mov    $0x3e8,%ecx
  1033c0:	31 d2                	xor    %edx,%edx
  1033c2:	f7 f1                	div    %ecx
  1033c4:	85 d2                	test   %edx,%edx
  1033c6:	74 7b                	je     103443 <bench_dinic_prepare+0x28b>
  1033c8:	8b 4b 10             	mov    0x10(%ebx),%ecx
  1033cb:	8b 73 04             	mov    0x4(%ebx),%esi
  1033ce:	89 f0                	mov    %esi,%eax
  1033d0:	c1 e0 04             	shl    $0x4,%eax
  1033d3:	89 4d e0             	mov    %ecx,-0x20(%ebp)
  1033d6:	01 c8                	add    %ecx,%eax
  1033d8:	8b 4d c4             	mov    -0x3c(%ebp),%ecx
  1033db:	89 08                	mov    %ecx,(%eax)
  1033dd:	8b 7d e4             	mov    -0x1c(%ebp),%edi
  1033e0:	89 78 04             	mov    %edi,0x4(%eax)
  1033e3:	89 50 08             	mov    %edx,0x8(%eax)
  1033e6:	c7 40 0c 00 00 00 00 	movl   $0x0,0xc(%eax)
  1033ed:	8b 53 14             	mov    0x14(%ebx),%edx
  1033f0:	8b 45 d0             	mov    -0x30(%ebp),%eax
  1033f3:	8d 0c 02             	lea    (%edx,%eax,1),%ecx
  1033f6:	8b 43 18             	mov    0x18(%ebx),%eax
  1033f9:	8b 39                	mov    (%ecx),%edi
  1033fb:	89 3c b0             	mov    %edi,(%eax,%esi,4)
  1033fe:	8b 73 04             	mov    0x4(%ebx),%esi
  103401:	8d 7e 01             	lea    0x1(%esi),%edi
  103404:	89 7b 04             	mov    %edi,0x4(%ebx)
  103407:	89 31                	mov    %esi,(%ecx)
  103409:	8b 4b 04             	mov    0x4(%ebx),%ecx
  10340c:	89 ce                	mov    %ecx,%esi
  10340e:	c1 e6 04             	shl    $0x4,%esi
  103411:	03 75 e0             	add    -0x20(%ebp),%esi
  103414:	8b 7d e4             	mov    -0x1c(%ebp),%edi
  103417:	89 3e                	mov    %edi,(%esi)
  103419:	8b 7d c4             	mov    -0x3c(%ebp),%edi
  10341c:	89 7e 04             	mov    %edi,0x4(%esi)
  10341f:	c7 46 08 00 00 00 00 	movl   $0x0,0x8(%esi)
  103426:	c7 46 0c 00 00 00 00 	movl   $0x0,0xc(%esi)
  10342d:	8b 7d e4             	mov    -0x1c(%ebp),%edi
  103430:	8d 14 ba             	lea    (%edx,%edi,4),%edx
  103433:	8b 32                	mov    (%edx),%esi
  103435:	89 34 88             	mov    %esi,(%eax,%ecx,4)
  103438:	8b 43 04             	mov    0x4(%ebx),%eax
  10343b:	8d 48 01             	lea    0x1(%eax),%ecx
  10343e:	89 4b 04             	mov    %ecx,0x4(%ebx)
  103441:	89 02                	mov    %eax,(%edx)
  103443:	8b 1d 28 58 10 00    	mov    0x105828,%ebx
  103449:	e8 d2 db ff ff       	call   101020 <bench_rand>
  10344e:	b9 e8 03 00 00       	mov    $0x3e8,%ecx
  103453:	31 d2                	xor    %edx,%edx
  103455:	f7 f1                	div    %ecx
  103457:	a1 2c 58 10 00       	mov    0x10582c,%eax
  10345c:	89 45 e0             	mov    %eax,-0x20(%ebp)
  10345f:	85 d2                	test   %edx,%edx
  103461:	74 78                	je     1034db <bench_dinic_prepare+0x323>
  103463:	03 45 e4             	add    -0x1c(%ebp),%eax
  103466:	8b 7b 10             	mov    0x10(%ebx),%edi
  103469:	8b 73 04             	mov    0x4(%ebx),%esi
  10346c:	89 f1                	mov    %esi,%ecx
  10346e:	c1 e1 04             	shl    $0x4,%ecx
  103471:	89 7d dc             	mov    %edi,-0x24(%ebp)
  103474:	01 f9                	add    %edi,%ecx
  103476:	89 01                	mov    %eax,(%ecx)
  103478:	8b 7d c8             	mov    -0x38(%ebp),%edi
  10347b:	89 79 04             	mov    %edi,0x4(%ecx)
  10347e:	89 51 08             	mov    %edx,0x8(%ecx)
  103481:	c7 41 0c 00 00 00 00 	movl   $0x0,0xc(%ecx)
  103488:	8b 53 14             	mov    0x14(%ebx),%edx
  10348b:	89 55 d8             	mov    %edx,-0x28(%ebp)
  10348e:	8d 0c 82             	lea    (%edx,%eax,4),%ecx
  103491:	8b 53 18             	mov    0x18(%ebx),%edx
  103494:	8b 39                	mov    (%ecx),%edi
  103496:	89 3c b2             	mov    %edi,(%edx,%esi,4)
  103499:	8b 73 04             	mov    0x4(%ebx),%esi
  10349c:	8d 7e 01             	lea    0x1(%esi),%edi
  10349f:	89 7b 04             	mov    %edi,0x4(%ebx)
  1034a2:	89 31                	mov    %esi,(%ecx)
  1034a4:	8b 4b 04             	mov    0x4(%ebx),%ecx
  1034a7:	89 ce                	mov    %ecx,%esi
  1034a9:	c1 e6 04             	shl    $0x4,%esi
  1034ac:	03 75 dc             	add    -0x24(%ebp),%esi
  1034af:	8b 7d c8             	mov    -0x38(%ebp),%edi
  1034b2:	89 3e                	mov    %edi,(%esi)
  1034b4:	89 46 04             	mov    %eax,0x4(%esi)
  1034b7:	c7 46 08 00 00 00 00 	movl   $0x0,0x8(%esi)
  1034be:	c7 46 0c 00 00 00 00 	movl   $0x0,0xc(%esi)
  1034c5:	8b 45 d8             	mov    -0x28(%ebp),%eax
  1034c8:	03 45 d4             	add    -0x2c(%ebp),%eax
  1034cb:	8b 30                	mov    (%eax),%esi
  1034cd:	89 34 8a             	mov    %esi,(%edx,%ecx,4)
  1034d0:	8b 53 04             	mov    0x4(%ebx),%edx
  1034d3:	8d 4a 01             	lea    0x1(%edx),%ecx
  1034d6:	89 4b 04             	mov    %ecx,0x4(%ebx)
  1034d9:	89 10                	mov    %edx,(%eax)
  1034db:	ff 45 e4             	incl   -0x1c(%ebp)
  1034de:	8b 45 e4             	mov    -0x1c(%ebp),%eax
  1034e1:	39 45 e0             	cmp    %eax,-0x20(%ebp)
  1034e4:	0f 8f c6 fe ff ff    	jg     1033b0 <bench_dinic_prepare+0x1f8>
  1034ea:	8d 65 f4             	lea    -0xc(%ebp),%esp
  1034ed:	5b                   	pop    %ebx
  1034ee:	5e                   	pop    %esi
  1034ef:	5f                   	pop    %edi
  1034f0:	5d                   	pop    %ebp
  1034f1:	c3                   	ret    
  1034f2:	66 90                	xchg   %ax,%ax

001034f4 <bench_dinic_run>:
  1034f4:	55                   	push   %ebp
  1034f5:	89 e5                	mov    %esp,%ebp
  1034f7:	57                   	push   %edi
  1034f8:	56                   	push   %esi
  1034f9:	53                   	push   %ebx
  1034fa:	83 ec 6c             	sub    $0x6c,%esp
  1034fd:	8b 35 28 58 10 00    	mov    0x105828,%esi
  103503:	a1 2c 58 10 00       	mov    0x10582c,%eax
  103508:	8d 1c 00             	lea    (%eax,%eax,1),%ebx
  10350b:	89 5d 98             	mov    %ebx,-0x68(%ebp)
  10350e:	89 5e 08             	mov    %ebx,0x8(%esi)
  103511:	8d 43 01             	lea    0x1(%ebx),%eax
  103514:	89 46 0c             	mov    %eax,0xc(%esi)
  103517:	8d 04 9d 00 00 00 00 	lea    0x0(,%ebx,4),%eax
  10351e:	89 45 c4             	mov    %eax,-0x3c(%ebp)
  103521:	8b 46 28             	mov    0x28(%esi),%eax
  103524:	89 45 d8             	mov    %eax,-0x28(%ebp)
  103527:	8b 46 24             	mov    0x24(%esi),%eax
  10352a:	89 45 d4             	mov    %eax,-0x2c(%ebp)
  10352d:	8b 46 1c             	mov    0x1c(%esi),%eax
  103530:	89 45 bc             	mov    %eax,-0x44(%ebp)
  103533:	8b 4e 14             	mov    0x14(%esi),%ecx
  103536:	c7 45 94 00 00 00 00 	movl   $0x0,-0x6c(%ebp)
  10353d:	89 f7                	mov    %esi,%edi
  10353f:	90                   	nop
  103540:	8b 17                	mov    (%edi),%edx
  103542:	85 d2                	test   %edx,%edx
  103544:	7e 12                	jle    103558 <bench_dinic_run+0x64>
  103546:	8b 75 d8             	mov    -0x28(%ebp),%esi
  103549:	89 f0                	mov    %esi,%eax
  10354b:	01 f2                	add    %esi,%edx
  10354d:	8d 76 00             	lea    0x0(%esi),%esi
  103550:	c6 00 00             	movb   $0x0,(%eax)
  103553:	40                   	inc    %eax
  103554:	39 c2                	cmp    %eax,%edx
  103556:	75 f8                	jne    103550 <bench_dinic_run+0x5c>
  103558:	8b 45 d4             	mov    -0x2c(%ebp),%eax
  10355b:	89 18                	mov    %ebx,(%eax)
  10355d:	8b 47 08             	mov    0x8(%edi),%eax
  103560:	8b 5d bc             	mov    -0x44(%ebp),%ebx
  103563:	c7 04 83 00 00 00 00 	movl   $0x0,(%ebx,%eax,4)
  10356a:	8b 47 08             	mov    0x8(%edi),%eax
  10356d:	8b 5d d8             	mov    -0x28(%ebp),%ebx
  103570:	c6 04 03 01          	movb   $0x1,(%ebx,%eax,1)
  103574:	c7 45 dc 01 00 00 00 	movl   $0x1,-0x24(%ebp)
  10357b:	31 db                	xor    %ebx,%ebx
  10357d:	89 7d c8             	mov    %edi,-0x38(%ebp)
  103580:	89 4d d0             	mov    %ecx,-0x30(%ebp)
  103583:	90                   	nop
  103584:	43                   	inc    %ebx
  103585:	8b 45 d4             	mov    -0x2c(%ebp),%eax
  103588:	8b 44 98 fc          	mov    -0x4(%eax,%ebx,4),%eax
  10358c:	89 45 e4             	mov    %eax,-0x1c(%ebp)
  10358f:	8d 0c 85 00 00 00 00 	lea    0x0(,%eax,4),%ecx
  103596:	8b 45 d0             	mov    -0x30(%ebp),%eax
  103599:	8b 04 08             	mov    (%eax,%ecx,1),%eax
  10359c:	83 f8 ff             	cmp    $0xffffffff,%eax
  10359f:	74 5e                	je     1035ff <bench_dinic_run+0x10b>
  1035a1:	8b 75 c8             	mov    -0x38(%ebp),%esi
  1035a4:	8b 7e 10             	mov    0x10(%esi),%edi
  1035a7:	89 7d e4             	mov    %edi,-0x1c(%ebp)
  1035aa:	8b 76 18             	mov    0x18(%esi),%esi
  1035ad:	89 75 e0             	mov    %esi,-0x20(%ebp)
  1035b0:	89 4d cc             	mov    %ecx,-0x34(%ebp)
  1035b3:	90                   	nop
  1035b4:	89 c2                	mov    %eax,%edx
  1035b6:	c1 e2 04             	shl    $0x4,%edx
  1035b9:	03 55 e4             	add    -0x1c(%ebp),%edx
  1035bc:	8b 72 04             	mov    0x4(%edx),%esi
  1035bf:	8b 7d d8             	mov    -0x28(%ebp),%edi
  1035c2:	01 f7                	add    %esi,%edi
  1035c4:	80 3f 00             	cmpb   $0x0,(%edi)
  1035c7:	75 2b                	jne    1035f4 <bench_dinic_run+0x100>
  1035c9:	8b 4a 0c             	mov    0xc(%edx),%ecx
  1035cc:	39 4a 08             	cmp    %ecx,0x8(%edx)
  1035cf:	7e 23                	jle    1035f4 <bench_dinic_run+0x100>
  1035d1:	c6 07 01             	movb   $0x1,(%edi)
  1035d4:	8b 4d bc             	mov    -0x44(%ebp),%ecx
  1035d7:	8b 7d cc             	mov    -0x34(%ebp),%edi
  1035da:	8b 3c 39             	mov    (%ecx,%edi,1),%edi
  1035dd:	89 7d c0             	mov    %edi,-0x40(%ebp)
  1035e0:	47                   	inc    %edi
  1035e1:	89 3c b1             	mov    %edi,(%ecx,%esi,4)
  1035e4:	8b 52 04             	mov    0x4(%edx),%edx
  1035e7:	8b 7d d4             	mov    -0x2c(%ebp),%edi
  1035ea:	8b 4d dc             	mov    -0x24(%ebp),%ecx
  1035ed:	89 14 8f             	mov    %edx,(%edi,%ecx,4)
  1035f0:	41                   	inc    %ecx
  1035f1:	89 4d dc             	mov    %ecx,-0x24(%ebp)
  1035f4:	8b 7d e0             	mov    -0x20(%ebp),%edi
  1035f7:	8b 04 87             	mov    (%edi,%eax,4),%eax
  1035fa:	83 f8 ff             	cmp    $0xffffffff,%eax
  1035fd:	75 b5                	jne    1035b4 <bench_dinic_run+0xc0>
  1035ff:	3b 5d dc             	cmp    -0x24(%ebp),%ebx
  103602:	75 80                	jne    103584 <bench_dinic_run+0x90>
  103604:	8b 7d c8             	mov    -0x38(%ebp),%edi
  103607:	8b 4d d0             	mov    -0x30(%ebp),%ecx
  10360a:	8b 47 0c             	mov    0xc(%edi),%eax
  10360d:	8b 5d d8             	mov    -0x28(%ebp),%ebx
  103610:	80 3c 03 00          	cmpb   $0x0,(%ebx,%eax,1)
  103614:	0f 84 44 03 00 00    	je     10395e <bench_dinic_run+0x46a>
  10361a:	8b 17                	mov    (%edi),%edx
  10361c:	85 d2                	test   %edx,%edx
  10361e:	7e 16                	jle    103636 <bench_dinic_run+0x142>
  103620:	8b 57 20             	mov    0x20(%edi),%edx
  103623:	31 c0                	xor    %eax,%eax
  103625:	8d 76 00             	lea    0x0(%esi),%esi
  103628:	8b 1c 81             	mov    (%ecx,%eax,4),%ebx
  10362b:	89 1c 82             	mov    %ebx,(%edx,%eax,4)
  10362e:	40                   	inc    %eax
  10362f:	39 07                	cmp    %eax,(%edi)
  103631:	7f f5                	jg     103628 <bench_dinic_run+0x134>
  103633:	8b 47 0c             	mov    0xc(%edi),%eax
  103636:	39 45 98             	cmp    %eax,-0x68(%ebp)
  103639:	0f 84 08 03 00 00    	je     103947 <bench_dinic_run+0x453>
  10363f:	8b 47 20             	mov    0x20(%edi),%eax
  103642:	8b 5d c4             	mov    -0x3c(%ebp),%ebx
  103645:	8b 04 18             	mov    (%eax,%ebx,1),%eax
  103648:	89 45 e4             	mov    %eax,-0x1c(%ebp)
  10364b:	40                   	inc    %eax
  10364c:	0f 84 68 02 00 00    	je     1038ba <bench_dinic_run+0x3c6>
  103652:	c7 45 a4 00 00 00 00 	movl   $0x0,-0x5c(%ebp)
  103659:	c7 45 ac 3f 3f 3f 00 	movl   $0x3f3f3f,-0x54(%ebp)
  103660:	89 fe                	mov    %edi,%esi
  103662:	8b 5d bc             	mov    -0x44(%ebp),%ebx
  103665:	eb 14                	jmp    10367b <bench_dinic_run+0x187>
  103667:	90                   	nop
  103668:	8b 46 18             	mov    0x18(%esi),%eax
  10366b:	8b 4d e4             	mov    -0x1c(%ebp),%ecx
  10366e:	8b 04 88             	mov    (%eax,%ecx,4),%eax
  103671:	89 45 e4             	mov    %eax,-0x1c(%ebp)
  103674:	40                   	inc    %eax
  103675:	0f 84 25 02 00 00    	je     1038a0 <bench_dinic_run+0x3ac>
  10367b:	8b 7e 10             	mov    0x10(%esi),%edi
  10367e:	8b 45 e4             	mov    -0x1c(%ebp),%eax
  103681:	c1 e0 04             	shl    $0x4,%eax
  103684:	01 f8                	add    %edi,%eax
  103686:	89 45 cc             	mov    %eax,-0x34(%ebp)
  103689:	8b 50 04             	mov    0x4(%eax),%edx
  10368c:	8d 04 95 00 00 00 00 	lea    0x0(,%edx,4),%eax
  103693:	89 45 d8             	mov    %eax,-0x28(%ebp)
  103696:	8b 0c 03             	mov    (%ebx,%eax,1),%ecx
  103699:	89 4d dc             	mov    %ecx,-0x24(%ebp)
  10369c:	8b 45 c4             	mov    -0x3c(%ebp),%eax
  10369f:	8b 04 03             	mov    (%ebx,%eax,1),%eax
  1036a2:	89 45 e0             	mov    %eax,-0x20(%ebp)
  1036a5:	40                   	inc    %eax
  1036a6:	39 c8                	cmp    %ecx,%eax
  1036a8:	75 be                	jne    103668 <bench_dinic_run+0x174>
  1036aa:	8b 4d cc             	mov    -0x34(%ebp),%ecx
  1036ad:	8b 41 08             	mov    0x8(%ecx),%eax
  1036b0:	2b 41 0c             	sub    0xc(%ecx),%eax
  1036b3:	89 45 bc             	mov    %eax,-0x44(%ebp)
  1036b6:	8b 4d ac             	mov    -0x54(%ebp),%ecx
  1036b9:	39 c8                	cmp    %ecx,%eax
  1036bb:	7e 03                	jle    1036c0 <bench_dinic_run+0x1cc>
  1036bd:	89 4d bc             	mov    %ecx,-0x44(%ebp)
  1036c0:	3b 56 0c             	cmp    0xc(%esi),%edx
  1036c3:	0f 84 6b 02 00 00    	je     103934 <bench_dinic_run+0x440>
  1036c9:	8b 45 bc             	mov    -0x44(%ebp),%eax
  1036cc:	85 c0                	test   %eax,%eax
  1036ce:	74 98                	je     103668 <bench_dinic_run+0x174>
  1036d0:	8b 46 20             	mov    0x20(%esi),%eax
  1036d3:	8b 4d d8             	mov    -0x28(%ebp),%ecx
  1036d6:	8b 04 08             	mov    (%eax,%ecx,1),%eax
  1036d9:	89 45 e0             	mov    %eax,-0x20(%ebp)
  1036dc:	40                   	inc    %eax
  1036dd:	74 89                	je     103668 <bench_dinic_run+0x174>
  1036df:	c7 45 b0 00 00 00 00 	movl   $0x0,-0x50(%ebp)
  1036e6:	8b 45 dc             	mov    -0x24(%ebp),%eax
  1036e9:	89 7d d4             	mov    %edi,-0x2c(%ebp)
  1036ec:	89 f7                	mov    %esi,%edi
  1036ee:	eb 1f                	jmp    10370f <bench_dinic_run+0x21b>
  1036f0:	8b 47 18             	mov    0x18(%edi),%eax
  1036f3:	8b 4d e0             	mov    -0x20(%ebp),%ecx
  1036f6:	8b 04 88             	mov    (%eax,%ecx,4),%eax
  1036f9:	89 45 e0             	mov    %eax,-0x20(%ebp)
  1036fc:	40                   	inc    %eax
  1036fd:	0f 84 69 01 00 00    	je     10386c <bench_dinic_run+0x378>
  103703:	8b 47 10             	mov    0x10(%edi),%eax
  103706:	89 45 d4             	mov    %eax,-0x2c(%ebp)
  103709:	8b 45 d8             	mov    -0x28(%ebp),%eax
  10370c:	8b 04 03             	mov    (%ebx,%eax,1),%eax
  10370f:	8b 55 e0             	mov    -0x20(%ebp),%edx
  103712:	c1 e2 04             	shl    $0x4,%edx
  103715:	8b 75 d4             	mov    -0x2c(%ebp),%esi
  103718:	01 d6                	add    %edx,%esi
  10371a:	89 75 c8             	mov    %esi,-0x38(%ebp)
  10371d:	8b 56 04             	mov    0x4(%esi),%edx
  103720:	8d 34 95 00 00 00 00 	lea    0x0(,%edx,4),%esi
  103727:	89 75 d0             	mov    %esi,-0x30(%ebp)
  10372a:	8b 34 33             	mov    (%ebx,%esi,1),%esi
  10372d:	40                   	inc    %eax
  10372e:	39 f0                	cmp    %esi,%eax
  103730:	75 be                	jne    1036f0 <bench_dinic_run+0x1fc>
  103732:	8b 4d c8             	mov    -0x38(%ebp),%ecx
  103735:	8b 41 08             	mov    0x8(%ecx),%eax
  103738:	2b 41 0c             	sub    0xc(%ecx),%eax
  10373b:	89 45 b4             	mov    %eax,-0x4c(%ebp)
  10373e:	8b 4d bc             	mov    -0x44(%ebp),%ecx
  103741:	39 c8                	cmp    %ecx,%eax
  103743:	7e 03                	jle    103748 <bench_dinic_run+0x254>
  103745:	89 4d b4             	mov    %ecx,-0x4c(%ebp)
  103748:	3b 57 0c             	cmp    0xc(%edi),%edx
  10374b:	0f 84 71 01 00 00    	je     1038c2 <bench_dinic_run+0x3ce>
  103751:	8b 45 b4             	mov    -0x4c(%ebp),%eax
  103754:	85 c0                	test   %eax,%eax
  103756:	74 98                	je     1036f0 <bench_dinic_run+0x1fc>
  103758:	8b 47 20             	mov    0x20(%edi),%eax
  10375b:	8b 4d d0             	mov    -0x30(%ebp),%ecx
  10375e:	8b 14 08             	mov    (%eax,%ecx,1),%edx
  103761:	83 fa ff             	cmp    $0xffffffff,%edx
  103764:	74 8a                	je     1036f0 <bench_dinic_run+0x1fc>
  103766:	c7 45 a0 00 00 00 00 	movl   $0x0,-0x60(%ebp)
  10376d:	89 55 dc             	mov    %edx,-0x24(%ebp)
  103770:	8b 4d d4             	mov    -0x2c(%ebp),%ecx
  103773:	89 f2                	mov    %esi,%edx
  103775:	eb 1d                	jmp    103794 <bench_dinic_run+0x2a0>
  103777:	90                   	nop
  103778:	8b 47 18             	mov    0x18(%edi),%eax
  10377b:	8b 4d dc             	mov    -0x24(%ebp),%ecx
  10377e:	8b 04 88             	mov    (%eax,%ecx,4),%eax
  103781:	89 45 dc             	mov    %eax,-0x24(%ebp)
  103784:	40                   	inc    %eax
  103785:	0f 84 3d 01 00 00    	je     1038c8 <bench_dinic_run+0x3d4>
  10378b:	8b 4f 10             	mov    0x10(%edi),%ecx
  10378e:	8b 45 d0             	mov    -0x30(%ebp),%eax
  103791:	8b 14 03             	mov    (%ebx,%eax,1),%edx
  103794:	8b 45 dc             	mov    -0x24(%ebp),%eax
  103797:	c1 e0 04             	shl    $0x4,%eax
  10379a:	01 c8                	add    %ecx,%eax
  10379c:	89 45 c0             	mov    %eax,-0x40(%ebp)
  10379f:	8b 70 04             	mov    0x4(%eax),%esi
  1037a2:	8d 04 b5 00 00 00 00 	lea    0x0(,%esi,4),%eax
  1037a9:	89 45 d4             	mov    %eax,-0x2c(%ebp)
  1037ac:	8b 04 03             	mov    (%ebx,%eax,1),%eax
  1037af:	89 45 b8             	mov    %eax,-0x48(%ebp)
  1037b2:	42                   	inc    %edx
  1037b3:	39 c2                	cmp    %eax,%edx
  1037b5:	75 c1                	jne    103778 <bench_dinic_run+0x284>
  1037b7:	8b 45 c0             	mov    -0x40(%ebp),%eax
  1037ba:	8b 50 08             	mov    0x8(%eax),%edx
  1037bd:	2b 50 0c             	sub    0xc(%eax),%edx
  1037c0:	89 55 a8             	mov    %edx,-0x58(%ebp)
  1037c3:	8b 45 b4             	mov    -0x4c(%ebp),%eax
  1037c6:	39 c2                	cmp    %eax,%edx
  1037c8:	7e 03                	jle    1037cd <bench_dinic_run+0x2d9>
  1037ca:	89 45 a8             	mov    %eax,-0x58(%ebp)
  1037cd:	3b 77 0c             	cmp    0xc(%edi),%esi
  1037d0:	0f 84 80 01 00 00    	je     103956 <bench_dinic_run+0x462>
  1037d6:	8b 45 a8             	mov    -0x58(%ebp),%eax
  1037d9:	85 c0                	test   %eax,%eax
  1037db:	74 9b                	je     103778 <bench_dinic_run+0x284>
  1037dd:	8b 57 20             	mov    0x20(%edi),%edx
  1037e0:	8b 45 d4             	mov    -0x2c(%ebp),%eax
  1037e3:	8b 34 02             	mov    (%edx,%eax,1),%esi
  1037e6:	83 fe ff             	cmp    $0xffffffff,%esi
  1037e9:	74 8d                	je     103778 <bench_dinic_run+0x284>
  1037eb:	c7 45 9c 00 00 00 00 	movl   $0x0,-0x64(%ebp)
  1037f2:	89 da                	mov    %ebx,%edx
  1037f4:	89 f3                	mov    %esi,%ebx
  1037f6:	8b 45 b8             	mov    -0x48(%ebp),%eax
  1037f9:	eb 19                	jmp    103814 <bench_dinic_run+0x320>
  1037fb:	90                   	nop
  1037fc:	8b 47 18             	mov    0x18(%edi),%eax
  1037ff:	8b 1c 98             	mov    (%eax,%ebx,4),%ebx
  103802:	83 fb ff             	cmp    $0xffffffff,%ebx
  103805:	0f 84 f3 00 00 00    	je     1038fe <bench_dinic_run+0x40a>
  10380b:	8b 4f 10             	mov    0x10(%edi),%ecx
  10380e:	8b 45 d4             	mov    -0x2c(%ebp),%eax
  103811:	8b 04 02             	mov    (%edx,%eax,1),%eax
  103814:	89 de                	mov    %ebx,%esi
  103816:	c1 e6 04             	shl    $0x4,%esi
  103819:	01 ce                	add    %ecx,%esi
  10381b:	8b 4e 04             	mov    0x4(%esi),%ecx
  10381e:	40                   	inc    %eax
  10381f:	3b 04 8a             	cmp    (%edx,%ecx,4),%eax
  103822:	75 d8                	jne    1037fc <bench_dinic_run+0x308>
  103824:	50                   	push   %eax
  103825:	8b 46 08             	mov    0x8(%esi),%eax
  103828:	2b 46 0c             	sub    0xc(%esi),%eax
  10382b:	8b 55 a8             	mov    -0x58(%ebp),%edx
  10382e:	39 d0                	cmp    %edx,%eax
  103830:	7e 02                	jle    103834 <bench_dinic_run+0x340>
  103832:	89 d0                	mov    %edx,%eax
  103834:	50                   	push   %eax
  103835:	51                   	push   %ecx
  103836:	57                   	push   %edi
  103837:	e8 40 f1 ff ff       	call   10297c <_ZN5Dinic3DFSEii>
  10383c:	83 c4 10             	add    $0x10,%esp
  10383f:	85 c0                	test   %eax,%eax
  103841:	0f 8e f8 00 00 00    	jle    10393f <bench_dinic_run+0x44b>
  103847:	01 46 0c             	add    %eax,0xc(%esi)
  10384a:	8b 4f 10             	mov    0x10(%edi),%ecx
  10384d:	89 da                	mov    %ebx,%edx
  10384f:	83 f2 01             	xor    $0x1,%edx
  103852:	c1 e2 04             	shl    $0x4,%edx
  103855:	29 44 11 0c          	sub    %eax,0xc(%ecx,%edx,1)
  103859:	01 45 9c             	add    %eax,-0x64(%ebp)
  10385c:	8b 57 1c             	mov    0x1c(%edi),%edx
  10385f:	29 45 a8             	sub    %eax,-0x58(%ebp)
  103862:	75 98                	jne    1037fc <bench_dinic_run+0x308>
  103864:	89 d3                	mov    %edx,%ebx
  103866:	e9 a3 00 00 00       	jmp    10390e <bench_dinic_run+0x41a>
  10386b:	90                   	nop
  10386c:	89 fe                	mov    %edi,%esi
  10386e:	8b 45 b0             	mov    -0x50(%ebp),%eax
  103871:	85 c0                	test   %eax,%eax
  103873:	0f 8e ef fd ff ff    	jle    103668 <bench_dinic_run+0x174>
  103879:	8b 46 10             	mov    0x10(%esi),%eax
  10387c:	89 c2                	mov    %eax,%edx
  10387e:	8b 45 cc             	mov    -0x34(%ebp),%eax
  103881:	8b 4d b0             	mov    -0x50(%ebp),%ecx
  103884:	01 48 0c             	add    %ecx,0xc(%eax)
  103887:	8b 45 e4             	mov    -0x1c(%ebp),%eax
  10388a:	83 f0 01             	xor    $0x1,%eax
  10388d:	c1 e0 04             	shl    $0x4,%eax
  103890:	29 4c 02 0c          	sub    %ecx,0xc(%edx,%eax,1)
  103894:	01 4d a4             	add    %ecx,-0x5c(%ebp)
  103897:	29 4d ac             	sub    %ecx,-0x54(%ebp)
  10389a:	0f 85 c8 fd ff ff    	jne    103668 <bench_dinic_run+0x174>
  1038a0:	89 f7                	mov    %esi,%edi
  1038a2:	89 5d bc             	mov    %ebx,-0x44(%ebp)
  1038a5:	8b 5d a4             	mov    -0x5c(%ebp),%ebx
  1038a8:	01 5d 94             	add    %ebx,-0x6c(%ebp)
  1038ab:	8b 46 28             	mov    0x28(%esi),%eax
  1038ae:	89 45 d8             	mov    %eax,-0x28(%ebp)
  1038b1:	8b 46 24             	mov    0x24(%esi),%eax
  1038b4:	89 45 d4             	mov    %eax,-0x2c(%ebp)
  1038b7:	8b 4e 14             	mov    0x14(%esi),%ecx
  1038ba:	8b 5f 08             	mov    0x8(%edi),%ebx
  1038bd:	e9 7e fc ff ff       	jmp    103540 <bench_dinic_run+0x4c>
  1038c2:	8b 45 b4             	mov    -0x4c(%ebp),%eax
  1038c5:	89 45 a0             	mov    %eax,-0x60(%ebp)
  1038c8:	8b 55 a0             	mov    -0x60(%ebp),%edx
  1038cb:	85 d2                	test   %edx,%edx
  1038cd:	0f 8e 1d fe ff ff    	jle    1036f0 <bench_dinic_run+0x1fc>
  1038d3:	8b 77 10             	mov    0x10(%edi),%esi
  1038d6:	8b 45 c8             	mov    -0x38(%ebp),%eax
  1038d9:	8b 4d a0             	mov    -0x60(%ebp),%ecx
  1038dc:	01 48 0c             	add    %ecx,0xc(%eax)
  1038df:	8b 45 e0             	mov    -0x20(%ebp),%eax
  1038e2:	83 f0 01             	xor    $0x1,%eax
  1038e5:	c1 e0 04             	shl    $0x4,%eax
  1038e8:	29 4c 06 0c          	sub    %ecx,0xc(%esi,%eax,1)
  1038ec:	01 4d b0             	add    %ecx,-0x50(%ebp)
  1038ef:	29 4d bc             	sub    %ecx,-0x44(%ebp)
  1038f2:	0f 85 f8 fd ff ff    	jne    1036f0 <bench_dinic_run+0x1fc>
  1038f8:	89 f2                	mov    %esi,%edx
  1038fa:	89 fe                	mov    %edi,%esi
  1038fc:	eb 80                	jmp    10387e <bench_dinic_run+0x38a>
  1038fe:	89 d3                	mov    %edx,%ebx
  103900:	8b 4d 9c             	mov    -0x64(%ebp),%ecx
  103903:	85 c9                	test   %ecx,%ecx
  103905:	0f 8e 6d fe ff ff    	jle    103778 <bench_dinic_run+0x284>
  10390b:	8b 4f 10             	mov    0x10(%edi),%ecx
  10390e:	8b 45 c0             	mov    -0x40(%ebp),%eax
  103911:	8b 55 9c             	mov    -0x64(%ebp),%edx
  103914:	01 50 0c             	add    %edx,0xc(%eax)
  103917:	8b 45 dc             	mov    -0x24(%ebp),%eax
  10391a:	83 f0 01             	xor    $0x1,%eax
  10391d:	c1 e0 04             	shl    $0x4,%eax
  103920:	29 54 01 0c          	sub    %edx,0xc(%ecx,%eax,1)
  103924:	01 55 a0             	add    %edx,-0x60(%ebp)
  103927:	29 55 b4             	sub    %edx,-0x4c(%ebp)
  10392a:	0f 85 48 fe ff ff    	jne    103778 <bench_dinic_run+0x284>
  103930:	89 ce                	mov    %ecx,%esi
  103932:	eb a2                	jmp    1038d6 <bench_dinic_run+0x3e2>
  103934:	8b 45 bc             	mov    -0x44(%ebp),%eax
  103937:	89 45 b0             	mov    %eax,-0x50(%ebp)
  10393a:	e9 2f ff ff ff       	jmp    10386e <bench_dinic_run+0x37a>
  10393f:	8b 57 1c             	mov    0x1c(%edi),%edx
  103942:	e9 b5 fe ff ff       	jmp    1037fc <bench_dinic_run+0x308>
  103947:	81 45 94 3f 3f 3f 00 	addl   $0x3f3f3f,-0x6c(%ebp)
  10394e:	8b 5f 08             	mov    0x8(%edi),%ebx
  103951:	e9 ea fb ff ff       	jmp    103540 <bench_dinic_run+0x4c>
  103956:	8b 45 a8             	mov    -0x58(%ebp),%eax
  103959:	89 45 9c             	mov    %eax,-0x64(%ebp)
  10395c:	eb a2                	jmp    103900 <bench_dinic_run+0x40c>
  10395e:	8b 45 94             	mov    -0x6c(%ebp),%eax
  103961:	a3 24 58 10 00       	mov    %eax,0x105824
  103966:	8d 65 f4             	lea    -0xc(%ebp),%esp
  103969:	5b                   	pop    %ebx
  10396a:	5e                   	pop    %esi
  10396b:	5f                   	pop    %edi
  10396c:	5d                   	pop    %ebp
  10396d:	c3                   	ret    
  10396e:	66 90                	xchg   %ax,%ax

00103970 <bench_dinic_validate>:
  103970:	a1 fc 57 10 00       	mov    0x1057fc,%eax
  103975:	8b 15 24 58 10 00    	mov    0x105824,%edx
  10397b:	39 50 0c             	cmp    %edx,0xc(%eax)
  10397e:	0f 94 c0             	sete   %al
  103981:	0f b6 c0             	movzbl %al,%eax
  103984:	c3                   	ret    
  103985:	66 90                	xchg   %ax,%ax
  103987:	90                   	nop

00103988 <bench_sieve_prepare>:
  103988:	55                   	push   %ebp
  103989:	89 e5                	mov    %esp,%ebp
  10398b:	83 ec 14             	sub    $0x14,%esp
  10398e:	a1 fc 57 10 00       	mov    0x1057fc,%eax
  103993:	8b 00                	mov    (%eax),%eax
  103995:	a3 38 58 10 00       	mov    %eax,0x105838
  10399a:	85 c0                	test   %eax,%eax
  10399c:	79 03                	jns    1039a1 <bench_sieve_prepare+0x19>
  10399e:	83 c0 07             	add    $0x7,%eax
  1039a1:	c1 f8 03             	sar    $0x3,%eax
  1039a4:	83 e8 80             	sub    $0xffffff80,%eax
  1039a7:	50                   	push   %eax
  1039a8:	e8 db d5 ff ff       	call   100f88 <bench_alloc>
  1039ad:	89 c2                	mov    %eax,%edx
  1039af:	a3 30 58 10 00       	mov    %eax,0x105830
  1039b4:	a1 38 58 10 00       	mov    0x105838,%eax
  1039b9:	89 c1                	mov    %eax,%ecx
  1039bb:	83 c4 10             	add    $0x10,%esp
  1039be:	85 c0                	test   %eax,%eax
  1039c0:	79 03                	jns    1039c5 <bench_sieve_prepare+0x3d>
  1039c2:	8d 48 1f             	lea    0x1f(%eax),%ecx
  1039c5:	c1 f9 05             	sar    $0x5,%ecx
  1039c8:	83 f8 e1             	cmp    $0xffffffe1,%eax
  1039cb:	7c 0f                	jl     1039dc <bench_sieve_prepare+0x54>
  1039cd:	31 c0                	xor    %eax,%eax
  1039cf:	90                   	nop
  1039d0:	c7 04 82 ff ff ff ff 	movl   $0xffffffff,(%edx,%eax,4)
  1039d7:	40                   	inc    %eax
  1039d8:	39 c8                	cmp    %ecx,%eax
  1039da:	7e f4                	jle    1039d0 <bench_sieve_prepare+0x48>
  1039dc:	c9                   	leave  
  1039dd:	c3                   	ret    
  1039de:	66 90                	xchg   %ax,%ax

001039e0 <bench_sieve_run>:
  1039e0:	55                   	push   %ebp
  1039e1:	89 e5                	mov    %esp,%ebp
  1039e3:	57                   	push   %edi
  1039e4:	56                   	push   %esi
  1039e5:	53                   	push   %ebx
  1039e6:	52                   	push   %edx
  1039e7:	8b 1d 38 58 10 00    	mov    0x105838,%ebx
  1039ed:	85 db                	test   %ebx,%ebx
  1039ef:	0f 8e ca 00 00 00    	jle    103abf <bench_sieve_run+0xdf>
  1039f5:	8b 15 30 58 10 00    	mov    0x105830,%edx
  1039fb:	8b 0a                	mov    (%edx),%ecx
  1039fd:	d1 e9                	shr    %ecx
  1039ff:	83 e1 01             	and    $0x1,%ecx
  103a02:	75 1a                	jne    103a1e <bench_sieve_run+0x3e>
  103a04:	e9 b0 00 00 00       	jmp    103ab9 <bench_sieve_run+0xd9>
  103a09:	8d 76 00             	lea    0x0(%esi),%esi
  103a0c:	89 c8                	mov    %ecx,%eax
  103a0e:	c1 f8 05             	sar    $0x5,%eax
  103a11:	8b 04 82             	mov    (%edx,%eax,4),%eax
  103a14:	d3 e8                	shr    %cl,%eax
  103a16:	a8 01                	test   $0x1,%al
  103a18:	0f 84 9b 00 00 00    	je     103ab9 <bench_sieve_run+0xd9>
  103a1e:	41                   	inc    %ecx
  103a1f:	39 d9                	cmp    %ebx,%ecx
  103a21:	7e e9                	jle    103a0c <bench_sieve_run+0x2c>
  103a23:	83 fb 03             	cmp    $0x3,%ebx
  103a26:	0f 8e 93 00 00 00    	jle    103abf <bench_sieve_run+0xdf>
  103a2c:	89 55 f0             	mov    %edx,-0x10(%ebp)
  103a2f:	b8 02 00 00 00       	mov    $0x2,%eax
  103a34:	eb 0c                	jmp    103a42 <bench_sieve_run+0x62>
  103a36:	66 90                	xchg   %ax,%ax
  103a38:	40                   	inc    %eax
  103a39:	89 c1                	mov    %eax,%ecx
  103a3b:	0f af c8             	imul   %eax,%ecx
  103a3e:	39 d9                	cmp    %ebx,%ecx
  103a40:	7f 3b                	jg     103a7d <bench_sieve_run+0x9d>
  103a42:	89 c1                	mov    %eax,%ecx
  103a44:	c1 f9 05             	sar    $0x5,%ecx
  103a47:	8b 34 8a             	mov    (%edx,%ecx,4),%esi
  103a4a:	88 c1                	mov    %al,%cl
  103a4c:	d3 ee                	shr    %cl,%esi
  103a4e:	83 e6 01             	and    $0x1,%esi
  103a51:	74 e5                	je     103a38 <bench_sieve_run+0x58>
  103a53:	8d 0c 00             	lea    (%eax,%eax,1),%ecx
  103a56:	39 d9                	cmp    %ebx,%ecx
  103a58:	7f de                	jg     103a38 <bench_sieve_run+0x58>
  103a5a:	66 90                	xchg   %ax,%ax
  103a5c:	89 ce                	mov    %ecx,%esi
  103a5e:	c1 fe 05             	sar    $0x5,%esi
  103a61:	bf 01 00 00 00       	mov    $0x1,%edi
  103a66:	d3 e7                	shl    %cl,%edi
  103a68:	f7 d7                	not    %edi
  103a6a:	21 3c b2             	and    %edi,(%edx,%esi,4)
  103a6d:	01 c1                	add    %eax,%ecx
  103a6f:	39 d9                	cmp    %ebx,%ecx
  103a71:	7e e9                	jle    103a5c <bench_sieve_run+0x7c>
  103a73:	40                   	inc    %eax
  103a74:	89 c1                	mov    %eax,%ecx
  103a76:	0f af c8             	imul   %eax,%ecx
  103a79:	39 d9                	cmp    %ebx,%ecx
  103a7b:	7e c5                	jle    103a42 <bench_sieve_run+0x62>
  103a7d:	c7 05 34 58 10 00 00 	movl   $0x0,0x105834
  103a84:	00 00 00 
  103a87:	31 f6                	xor    %esi,%esi
  103a89:	31 d2                	xor    %edx,%edx
  103a8b:	b9 02 00 00 00       	mov    $0x2,%ecx
  103a90:	8b 7d f0             	mov    -0x10(%ebp),%edi
  103a93:	90                   	nop
  103a94:	89 c8                	mov    %ecx,%eax
  103a96:	c1 f8 05             	sar    $0x5,%eax
  103a99:	8b 04 87             	mov    (%edi,%eax,4),%eax
  103a9c:	d3 e8                	shr    %cl,%eax
  103a9e:	a8 01                	test   $0x1,%al
  103aa0:	74 06                	je     103aa8 <bench_sieve_run+0xc8>
  103aa2:	42                   	inc    %edx
  103aa3:	be 01 00 00 00       	mov    $0x1,%esi
  103aa8:	41                   	inc    %ecx
  103aa9:	39 d9                	cmp    %ebx,%ecx
  103aab:	7e e7                	jle    103a94 <bench_sieve_run+0xb4>
  103aad:	89 f0                	mov    %esi,%eax
  103aaf:	84 c0                	test   %al,%al
  103ab1:	74 06                	je     103ab9 <bench_sieve_run+0xd9>
  103ab3:	89 15 34 58 10 00    	mov    %edx,0x105834
  103ab9:	58                   	pop    %eax
  103aba:	5b                   	pop    %ebx
  103abb:	5e                   	pop    %esi
  103abc:	5f                   	pop    %edi
  103abd:	5d                   	pop    %ebp
  103abe:	c3                   	ret    
  103abf:	c7 05 34 58 10 00 00 	movl   $0x0,0x105834
  103ac6:	00 00 00 
  103ac9:	83 fb 01             	cmp    $0x1,%ebx
  103acc:	7e eb                	jle    103ab9 <bench_sieve_run+0xd9>
  103ace:	a1 30 58 10 00       	mov    0x105830,%eax
  103ad3:	89 45 f0             	mov    %eax,-0x10(%ebp)
  103ad6:	eb af                	jmp    103a87 <bench_sieve_run+0xa7>

00103ad8 <bench_sieve_validate>:
  103ad8:	a1 fc 57 10 00       	mov    0x1057fc,%eax
  103add:	8b 15 34 58 10 00    	mov    0x105834,%edx
  103ae3:	39 50 0c             	cmp    %edx,0xc(%eax)
  103ae6:	0f 94 c0             	sete   %al
  103ae9:	0f b6 c0             	movzbl %al,%eax
  103aec:	c3                   	ret    
  103aed:	66 90                	xchg   %ax,%ax
  103aef:	90                   	nop

00103af0 <bench_fib_prepare>:
  103af0:	55                   	push   %ebp
  103af1:	89 e5                	mov    %esp,%ebp
  103af3:	53                   	push   %ebx
  103af4:	83 ec 10             	sub    $0x10,%esp
  103af7:	a1 fc 57 10 00       	mov    0x1057fc,%eax
  103afc:	8b 18                	mov    (%eax),%ebx
  103afe:	89 1d 4c 58 10 00    	mov    %ebx,0x10584c
  103b04:	0f af db             	imul   %ebx,%ebx
  103b07:	c1 e3 02             	shl    $0x2,%ebx
  103b0a:	53                   	push   %ebx
  103b0b:	e8 78 d4 ff ff       	call   100f88 <bench_alloc>
  103b10:	a3 48 58 10 00       	mov    %eax,0x105848
  103b15:	89 1c 24             	mov    %ebx,(%esp)
  103b18:	e8 6b d4 ff ff       	call   100f88 <bench_alloc>
  103b1d:	a3 40 58 10 00       	mov    %eax,0x105840
  103b22:	89 1c 24             	mov    %ebx,(%esp)
  103b25:	e8 5e d4 ff ff       	call   100f88 <bench_alloc>
  103b2a:	a3 44 58 10 00       	mov    %eax,0x105844
  103b2f:	89 1c 24             	mov    %ebx,(%esp)
  103b32:	e8 51 d4 ff ff       	call   100f88 <bench_alloc>
  103b37:	a3 3c 58 10 00       	mov    %eax,0x10583c
  103b3c:	83 c4 10             	add    $0x10,%esp
  103b3f:	8b 5d fc             	mov    -0x4(%ebp),%ebx
  103b42:	c9                   	leave  
  103b43:	c3                   	ret    

00103b44 <bench_fib_run>:
  103b44:	55                   	push   %ebp
  103b45:	89 e5                	mov    %esp,%ebp
  103b47:	57                   	push   %edi
  103b48:	56                   	push   %esi
  103b49:	53                   	push   %ebx
  103b4a:	83 ec 38             	sub    $0x38,%esp
  103b4d:	a1 4c 58 10 00       	mov    0x10584c,%eax
  103b52:	89 45 f0             	mov    %eax,-0x10(%ebp)
  103b55:	8b 35 40 58 10 00    	mov    0x105840,%esi
  103b5b:	89 75 d4             	mov    %esi,-0x2c(%ebp)
  103b5e:	8b 35 44 58 10 00    	mov    0x105844,%esi
  103b64:	89 75 cc             	mov    %esi,-0x34(%ebp)
  103b67:	85 c0                	test   %eax,%eax
  103b69:	7e 67                	jle    103bd2 <bench_fib_run+0x8e>
  103b6b:	8b 45 f0             	mov    -0x10(%ebp),%eax
  103b6e:	8d 70 ff             	lea    -0x1(%eax),%esi
  103b71:	89 75 e8             	mov    %esi,-0x18(%ebp)
  103b74:	c1 e0 02             	shl    $0x2,%eax
  103b77:	89 45 e4             	mov    %eax,-0x1c(%ebp)
  103b7a:	8b 0d 48 58 10 00    	mov    0x105848,%ecx
  103b80:	8b 5d d4             	mov    -0x2c(%ebp),%ebx
  103b83:	8b 75 cc             	mov    -0x34(%ebp),%esi
  103b86:	31 ff                	xor    %edi,%edi
  103b88:	c7 45 ec 00 00 00 00 	movl   $0x0,-0x14(%ebp)
  103b8f:	ff 45 ec             	incl   -0x14(%ebp)
  103b92:	31 c0                	xor    %eax,%eax
  103b94:	eb 1e                	jmp    103bb4 <bench_fib_run+0x70>
  103b96:	31 d2                	xor    %edx,%edx
  103b98:	3b 45 ec             	cmp    -0x14(%ebp),%eax
  103b9b:	0f 94 c2             	sete   %dl
  103b9e:	89 14 81             	mov    %edx,(%ecx,%eax,4)
  103ba1:	89 14 83             	mov    %edx,(%ebx,%eax,4)
  103ba4:	31 d2                	xor    %edx,%edx
  103ba6:	39 f8                	cmp    %edi,%eax
  103ba8:	0f 94 c2             	sete   %dl
  103bab:	89 14 86             	mov    %edx,(%esi,%eax,4)
  103bae:	40                   	inc    %eax
  103baf:	3b 45 f0             	cmp    -0x10(%ebp),%eax
  103bb2:	74 0c                	je     103bc0 <bench_fib_run+0x7c>
  103bb4:	39 7d e8             	cmp    %edi,-0x18(%ebp)
  103bb7:	75 dd                	jne    103b96 <bench_fib_run+0x52>
  103bb9:	ba 01 00 00 00       	mov    $0x1,%edx
  103bbe:	eb de                	jmp    103b9e <bench_fib_run+0x5a>
  103bc0:	47                   	inc    %edi
  103bc1:	8b 45 e4             	mov    -0x1c(%ebp),%eax
  103bc4:	01 c1                	add    %eax,%ecx
  103bc6:	01 c3                	add    %eax,%ebx
  103bc8:	01 c6                	add    %eax,%esi
  103bca:	8b 55 ec             	mov    -0x14(%ebp),%edx
  103bcd:	39 55 f0             	cmp    %edx,-0x10(%ebp)
  103bd0:	75 bd                	jne    103b8f <bench_fib_run+0x4b>
  103bd2:	8b 45 f0             	mov    -0x10(%ebp),%eax
  103bd5:	c1 e0 02             	shl    $0x2,%eax
  103bd8:	8b 75 cc             	mov    -0x34(%ebp),%esi
  103bdb:	01 c6                	add    %eax,%esi
  103bdd:	89 75 bc             	mov    %esi,-0x44(%ebp)
  103be0:	8b 35 3c 58 10 00    	mov    0x10583c,%esi
  103be6:	89 75 d8             	mov    %esi,-0x28(%ebp)
  103be9:	01 c6                	add    %eax,%esi
  103beb:	89 75 c0             	mov    %esi,-0x40(%ebp)
  103bee:	c7 45 c4 1f 00 00 00 	movl   $0x1f,-0x3c(%ebp)
  103bf5:	c7 45 c8 d3 ff ff 7f 	movl   $0x7fffffd3,-0x38(%ebp)
  103bfc:	89 c7                	mov    %eax,%edi
  103bfe:	f6 45 c8 01          	testb  $0x1,-0x38(%ebp)
  103c02:	0f 85 c3 00 00 00    	jne    103ccb <bench_fib_run+0x187>
  103c08:	8b 45 f0             	mov    -0x10(%ebp),%eax
  103c0b:	85 c0                	test   %eax,%eax
  103c0d:	0f 8e a4 00 00 00    	jle    103cb7 <bench_fib_run+0x173>
  103c13:	8b 75 d4             	mov    -0x2c(%ebp),%esi
  103c16:	89 75 d0             	mov    %esi,-0x30(%ebp)
  103c19:	c7 45 dc 00 00 00 00 	movl   $0x0,-0x24(%ebp)
  103c20:	c7 45 e0 00 00 00 00 	movl   $0x0,-0x20(%ebp)
  103c27:	89 7d ec             	mov    %edi,-0x14(%ebp)
  103c2a:	66 90                	xchg   %ax,%ax
  103c2c:	8b 45 d8             	mov    -0x28(%ebp),%eax
  103c2f:	8b 7d dc             	mov    -0x24(%ebp),%edi
  103c32:	8d 3c b8             	lea    (%eax,%edi,4),%edi
  103c35:	8b 45 d4             	mov    -0x2c(%ebp),%eax
  103c38:	89 45 e4             	mov    %eax,-0x1c(%ebp)
  103c3b:	c7 45 e8 00 00 00 00 	movl   $0x0,-0x18(%ebp)
  103c42:	66 90                	xchg   %ax,%ax
  103c44:	c7 07 00 00 00 00    	movl   $0x0,(%edi)
  103c4a:	8b 5d e4             	mov    -0x1c(%ebp),%ebx
  103c4d:	31 c9                	xor    %ecx,%ecx
  103c4f:	31 c0                	xor    %eax,%eax
  103c51:	8b 14 86             	mov    (%esi,%eax,4),%edx
  103c54:	0f af 13             	imul   (%ebx),%edx
  103c57:	01 d1                	add    %edx,%ecx
  103c59:	89 0f                	mov    %ecx,(%edi)
  103c5b:	40                   	inc    %eax
  103c5c:	03 5d ec             	add    -0x14(%ebp),%ebx
  103c5f:	8b 55 f0             	mov    -0x10(%ebp),%edx
  103c62:	39 c2                	cmp    %eax,%edx
  103c64:	7f eb                	jg     103c51 <bench_fib_run+0x10d>
  103c66:	ff 45 e8             	incl   -0x18(%ebp)
  103c69:	8b 45 e8             	mov    -0x18(%ebp),%eax
  103c6c:	83 c7 04             	add    $0x4,%edi
  103c6f:	83 45 e4 04          	addl   $0x4,-0x1c(%ebp)
  103c73:	39 c2                	cmp    %eax,%edx
  103c75:	7f cd                	jg     103c44 <bench_fib_run+0x100>
  103c77:	ff 45 e0             	incl   -0x20(%ebp)
  103c7a:	8b 45 e0             	mov    -0x20(%ebp),%eax
  103c7d:	89 d3                	mov    %edx,%ebx
  103c7f:	01 55 dc             	add    %edx,-0x24(%ebp)
  103c82:	03 75 ec             	add    -0x14(%ebp),%esi
  103c85:	39 c2                	cmp    %eax,%edx
  103c87:	7f a3                	jg     103c2c <bench_fib_run+0xe8>
  103c89:	8b 7d ec             	mov    -0x14(%ebp),%edi
  103c8c:	8b 55 d8             	mov    -0x28(%ebp),%edx
  103c8f:	31 c9                	xor    %ecx,%ecx
  103c91:	89 de                	mov    %ebx,%esi
  103c93:	8b 5d d0             	mov    -0x30(%ebp),%ebx
  103c96:	66 90                	xchg   %ax,%ax
  103c98:	31 c0                	xor    %eax,%eax
  103c9a:	89 4d ec             	mov    %ecx,-0x14(%ebp)
  103c9d:	8d 76 00             	lea    0x0(%esi),%esi
  103ca0:	8b 0c 82             	mov    (%edx,%eax,4),%ecx
  103ca3:	89 0c 83             	mov    %ecx,(%ebx,%eax,4)
  103ca6:	40                   	inc    %eax
  103ca7:	39 f0                	cmp    %esi,%eax
  103ca9:	7c f5                	jl     103ca0 <bench_fib_run+0x15c>
  103cab:	8b 4d ec             	mov    -0x14(%ebp),%ecx
  103cae:	41                   	inc    %ecx
  103caf:	01 fa                	add    %edi,%edx
  103cb1:	01 fb                	add    %edi,%ebx
  103cb3:	39 f1                	cmp    %esi,%ecx
  103cb5:	7c e1                	jl     103c98 <bench_fib_run+0x154>
  103cb7:	d1 7d c8             	sarl   -0x38(%ebp)
  103cba:	ff 4d c4             	decl   -0x3c(%ebp)
  103cbd:	0f 85 3b ff ff ff    	jne    103bfe <bench_fib_run+0xba>
  103cc3:	83 c4 38             	add    $0x38,%esp
  103cc6:	5b                   	pop    %ebx
  103cc7:	5e                   	pop    %esi
  103cc8:	5f                   	pop    %edi
  103cc9:	5d                   	pop    %ebp
  103cca:	c3                   	ret    
  103ccb:	8b 55 f0             	mov    -0x10(%ebp),%edx
  103cce:	85 d2                	test   %edx,%edx
  103cd0:	7e e5                	jle    103cb7 <bench_fib_run+0x173>
  103cd2:	8b 45 bc             	mov    -0x44(%ebp),%eax
  103cd5:	89 45 ec             	mov    %eax,-0x14(%ebp)
  103cd8:	8b 45 cc             	mov    -0x34(%ebp),%eax
  103cdb:	89 45 e0             	mov    %eax,-0x20(%ebp)
  103cde:	c7 45 d0 00 00 00 00 	movl   $0x0,-0x30(%ebp)
  103ce5:	c7 45 dc 00 00 00 00 	movl   $0x0,-0x24(%ebp)
  103cec:	8b 45 d8             	mov    -0x28(%ebp),%eax
  103cef:	8b 75 d0             	mov    -0x30(%ebp),%esi
  103cf2:	8d 34 b0             	lea    (%eax,%esi,4),%esi
  103cf5:	8b 45 d4             	mov    -0x2c(%ebp),%eax
  103cf8:	89 45 e4             	mov    %eax,-0x1c(%ebp)
  103cfb:	c7 45 e8 00 00 00 00 	movl   $0x0,-0x18(%ebp)
  103d02:	66 90                	xchg   %ax,%ax
  103d04:	c7 06 00 00 00 00    	movl   $0x0,(%esi)
  103d0a:	8b 5d e4             	mov    -0x1c(%ebp),%ebx
  103d0d:	8b 45 e0             	mov    -0x20(%ebp),%eax
  103d10:	31 c9                	xor    %ecx,%ecx
  103d12:	66 90                	xchg   %ax,%ax
  103d14:	8b 10                	mov    (%eax),%edx
  103d16:	0f af 13             	imul   (%ebx),%edx
  103d19:	01 d1                	add    %edx,%ecx
  103d1b:	89 0e                	mov    %ecx,(%esi)
  103d1d:	83 c0 04             	add    $0x4,%eax
  103d20:	01 fb                	add    %edi,%ebx
  103d22:	39 45 ec             	cmp    %eax,-0x14(%ebp)
  103d25:	75 ed                	jne    103d14 <bench_fib_run+0x1d0>
  103d27:	ff 45 e8             	incl   -0x18(%ebp)
  103d2a:	8b 45 e8             	mov    -0x18(%ebp),%eax
  103d2d:	83 c6 04             	add    $0x4,%esi
  103d30:	83 45 e4 04          	addl   $0x4,-0x1c(%ebp)
  103d34:	3b 45 f0             	cmp    -0x10(%ebp),%eax
  103d37:	75 cb                	jne    103d04 <bench_fib_run+0x1c0>
  103d39:	ff 45 dc             	incl   -0x24(%ebp)
  103d3c:	8b 45 dc             	mov    -0x24(%ebp),%eax
  103d3f:	01 7d e0             	add    %edi,-0x20(%ebp)
  103d42:	8b 5d f0             	mov    -0x10(%ebp),%ebx
  103d45:	01 5d d0             	add    %ebx,-0x30(%ebp)
  103d48:	01 7d ec             	add    %edi,-0x14(%ebp)
  103d4b:	39 d8                	cmp    %ebx,%eax
  103d4d:	75 9d                	jne    103cec <bench_fib_run+0x1a8>
  103d4f:	8b 4d c0             	mov    -0x40(%ebp),%ecx
  103d52:	31 db                	xor    %ebx,%ebx
  103d54:	31 f6                	xor    %esi,%esi
  103d56:	8b 45 d8             	mov    -0x28(%ebp),%eax
  103d59:	01 d8                	add    %ebx,%eax
  103d5b:	8b 55 cc             	mov    -0x34(%ebp),%edx
  103d5e:	01 da                	add    %ebx,%edx
  103d60:	89 5d ec             	mov    %ebx,-0x14(%ebp)
  103d63:	90                   	nop
  103d64:	8b 18                	mov    (%eax),%ebx
  103d66:	89 1a                	mov    %ebx,(%edx)
  103d68:	83 c0 04             	add    $0x4,%eax
  103d6b:	83 c2 04             	add    $0x4,%edx
  103d6e:	39 c1                	cmp    %eax,%ecx
  103d70:	75 f2                	jne    103d64 <bench_fib_run+0x220>
  103d72:	8b 5d ec             	mov    -0x14(%ebp),%ebx
  103d75:	46                   	inc    %esi
  103d76:	01 f9                	add    %edi,%ecx
  103d78:	01 fb                	add    %edi,%ebx
  103d7a:	3b 75 f0             	cmp    -0x10(%ebp),%esi
  103d7d:	75 d7                	jne    103d56 <bench_fib_run+0x212>
  103d7f:	e9 8f fe ff ff       	jmp    103c13 <bench_fib_run+0xcf>

00103d84 <bench_fib_validate>:
  103d84:	a1 4c 58 10 00       	mov    0x10584c,%eax
  103d89:	8d 50 ff             	lea    -0x1(%eax),%edx
  103d8c:	0f af c2             	imul   %edx,%eax
  103d8f:	01 d0                	add    %edx,%eax
  103d91:	8b 0d 44 58 10 00    	mov    0x105844,%ecx
  103d97:	8b 15 fc 57 10 00    	mov    0x1057fc,%edx
  103d9d:	8b 52 0c             	mov    0xc(%edx),%edx
  103da0:	39 14 81             	cmp    %edx,(%ecx,%eax,4)
  103da3:	0f 94 c0             	sete   %al
  103da6:	0f b6 c0             	movzbl %al,%eax
  103da9:	c3                   	ret    
  103daa:	66 90                	xchg   %ax,%ax

00103dac <bench_md5_prepare>:
  103dac:	55                   	push   %ebp
  103dad:	89 e5                	mov    %esp,%ebp
  103daf:	53                   	push   %ebx
  103db0:	83 ec 10             	sub    $0x10,%esp
  103db3:	a1 fc 57 10 00       	mov    0x1057fc,%eax
  103db8:	8b 00                	mov    (%eax),%eax
  103dba:	a3 58 58 10 00       	mov    %eax,0x105858
  103dbf:	6a 01                	push   $0x1
  103dc1:	e8 46 d2 ff ff       	call   10100c <bench_srand>
  103dc6:	58                   	pop    %eax
  103dc7:	ff 35 58 58 10 00    	pushl  0x105858
  103dcd:	e8 b6 d1 ff ff       	call   100f88 <bench_alloc>
  103dd2:	a3 54 58 10 00       	mov    %eax,0x105854
  103dd7:	83 c4 10             	add    $0x10,%esp
  103dda:	8b 15 58 58 10 00    	mov    0x105858,%edx
  103de0:	85 d2                	test   %edx,%edx
  103de2:	7e 1b                	jle    103dff <bench_md5_prepare+0x53>
  103de4:	31 db                	xor    %ebx,%ebx
  103de6:	66 90                	xchg   %ax,%ax
  103de8:	e8 33 d2 ff ff       	call   101020 <bench_rand>
  103ded:	8b 15 54 58 10 00    	mov    0x105854,%edx
  103df3:	88 04 1a             	mov    %al,(%edx,%ebx,1)
  103df6:	43                   	inc    %ebx
  103df7:	39 1d 58 58 10 00    	cmp    %ebx,0x105858
  103dfd:	7f e9                	jg     103de8 <bench_md5_prepare+0x3c>
  103dff:	83 ec 0c             	sub    $0xc,%esp
  103e02:	6a 10                	push   $0x10
  103e04:	e8 7f d1 ff ff       	call   100f88 <bench_alloc>
  103e09:	a3 50 58 10 00       	mov    %eax,0x105850
  103e0e:	83 c4 10             	add    $0x10,%esp
  103e11:	8b 5d fc             	mov    -0x4(%ebp),%ebx
  103e14:	c9                   	leave  
  103e15:	c3                   	ret    
  103e16:	66 90                	xchg   %ax,%ax

00103e18 <bench_md5_run>:
  103e18:	55                   	push   %ebp
  103e19:	89 e5                	mov    %esp,%ebp
  103e1b:	57                   	push   %edi
  103e1c:	56                   	push   %esi
  103e1d:	53                   	push   %ebx
  103e1e:	83 ec 70             	sub    $0x70,%esp
  103e21:	a1 50 58 10 00       	mov    0x105850,%eax
  103e26:	89 45 84             	mov    %eax,-0x7c(%ebp)
  103e29:	8b 0d 58 58 10 00    	mov    0x105858,%ecx
  103e2f:	a1 54 58 10 00       	mov    0x105854,%eax
  103e34:	89 c6                	mov    %eax,%esi
  103e36:	89 45 8c             	mov    %eax,-0x74(%ebp)
  103e39:	8d 41 01             	lea    0x1(%ecx),%eax
  103e3c:	8d 1c 0e             	lea    (%esi,%ecx,1),%ebx
  103e3f:	89 c2                	mov    %eax,%edx
  103e41:	83 e2 3f             	and    $0x3f,%edx
  103e44:	83 fa 38             	cmp    $0x38,%edx
  103e47:	0f 84 aa 01 00 00    	je     103ff7 <bench_md5_run+0x1df>
  103e4d:	89 c2                	mov    %eax,%edx
  103e4f:	90                   	nop
  103e50:	42                   	inc    %edx
  103e51:	89 d6                	mov    %edx,%esi
  103e53:	83 e6 3f             	and    $0x3f,%esi
  103e56:	83 fe 38             	cmp    $0x38,%esi
  103e59:	75 f5                	jne    103e50 <bench_md5_run+0x38>
  103e5b:	89 55 88             	mov    %edx,-0x78(%ebp)
  103e5e:	c6 03 80             	movb   $0x80,(%ebx)
  103e61:	39 d0                	cmp    %edx,%eax
  103e63:	73 13                	jae    103e78 <bench_md5_run+0x60>
  103e65:	8b 7d 8c             	mov    -0x74(%ebp),%edi
  103e68:	01 f8                	add    %edi,%eax
  103e6a:	01 d7                	add    %edx,%edi
  103e6c:	89 fa                	mov    %edi,%edx
  103e6e:	66 90                	xchg   %ax,%ax
  103e70:	c6 00 00             	movb   $0x0,(%eax)
  103e73:	40                   	inc    %eax
  103e74:	39 c2                	cmp    %eax,%edx
  103e76:	75 f8                	jne    103e70 <bench_md5_run+0x58>
  103e78:	8d 04 cd 00 00 00 00 	lea    0x0(,%ecx,8),%eax
  103e7f:	8b 75 8c             	mov    -0x74(%ebp),%esi
  103e82:	8b 7d 88             	mov    -0x78(%ebp),%edi
  103e85:	89 04 3e             	mov    %eax,(%esi,%edi,1)
  103e88:	8d 44 3e 04          	lea    0x4(%esi,%edi,1),%eax
  103e8c:	c1 e9 1d             	shr    $0x1d,%ecx
  103e8f:	88 08                	mov    %cl,(%eax)
  103e91:	66 c7 40 01 00 00    	movw   $0x0,0x1(%eax)
  103e97:	c6 40 03 00          	movb   $0x0,0x3(%eax)
  103e9b:	c7 45 90 76 54 32 10 	movl   $0x10325476,-0x70(%ebp)
  103ea2:	c7 45 94 fe dc ba 98 	movl   $0x98badcfe,-0x6c(%ebp)
  103ea9:	c7 45 98 89 ab cd ef 	movl   $0xefcdab89,-0x68(%ebp)
  103eb0:	c7 45 9c 01 23 45 67 	movl   $0x67452301,-0x64(%ebp)
  103eb7:	c7 45 a0 00 00 00 00 	movl   $0x0,-0x60(%ebp)
  103ebe:	66 90                	xchg   %ax,%ax
  103ec0:	31 c0                	xor    %eax,%eax
  103ec2:	8b 75 8c             	mov    -0x74(%ebp),%esi
  103ec5:	8b 7d a0             	mov    -0x60(%ebp),%edi
  103ec8:	8d 14 3e             	lea    (%esi,%edi,1),%edx
  103ecb:	90                   	nop
  103ecc:	8b 0c 82             	mov    (%edx,%eax,4),%ecx
  103ecf:	89 4c 85 b4          	mov    %ecx,-0x4c(%ebp,%eax,4)
  103ed3:	40                   	inc    %eax
  103ed4:	83 f8 10             	cmp    $0x10,%eax
  103ed7:	75 f3                	jne    103ecc <bench_md5_run+0xb4>
  103ed9:	8b 75 9c             	mov    -0x64(%ebp),%esi
  103edc:	8b 5d 98             	mov    -0x68(%ebp),%ebx
  103edf:	8b 45 90             	mov    -0x70(%ebp),%eax
  103ee2:	89 45 b0             	mov    %eax,-0x50(%ebp)
  103ee5:	8b 7d 94             	mov    -0x6c(%ebp),%edi
  103ee8:	c7 45 a8 01 00 00 00 	movl   $0x1,-0x58(%ebp)
  103eef:	c7 45 a4 05 00 00 00 	movl   $0x5,-0x5c(%ebp)
  103ef6:	31 d2                	xor    %edx,%edx
  103ef8:	b9 07 00 00 00       	mov    $0x7,%ecx
  103efd:	b8 78 a4 6a d7       	mov    $0xd76aa478,%eax
  103f02:	89 4d ac             	mov    %ecx,-0x54(%ebp)
  103f05:	89 f1                	mov    %esi,%ecx
  103f07:	8b 75 b0             	mov    -0x50(%ebp),%esi
  103f0a:	01 c8                	add    %ecx,%eax
  103f0c:	89 45 b0             	mov    %eax,-0x50(%ebp)
  103f0f:	83 fa 0f             	cmp    $0xf,%edx
  103f12:	76 51                	jbe    103f65 <bench_md5_run+0x14d>
  103f14:	83 fa 1f             	cmp    $0x1f,%edx
  103f17:	77 5b                	ja     103f74 <bench_md5_run+0x15c>
  103f19:	89 f8                	mov    %edi,%eax
  103f1b:	31 d8                	xor    %ebx,%eax
  103f1d:	21 f0                	and    %esi,%eax
  103f1f:	31 f8                	xor    %edi,%eax
  103f21:	8b 4d a8             	mov    -0x58(%ebp),%ecx
  103f24:	83 e1 0f             	and    $0xf,%ecx
  103f27:	03 45 b0             	add    -0x50(%ebp),%eax
  103f2a:	03 44 8d b4          	add    -0x4c(%ebp,%ecx,4),%eax
  103f2e:	8a 4d ac             	mov    -0x54(%ebp),%cl
  103f31:	d3 c0                	rol    %cl,%eax
  103f33:	01 d8                	add    %ebx,%eax
  103f35:	89 45 b0             	mov    %eax,-0x50(%ebp)
  103f38:	8b 04 95 64 4f 10 00 	mov    0x104f64(,%edx,4),%eax
  103f3f:	8b 0c 95 64 4e 10 00 	mov    0x104e64(,%edx,4),%ecx
  103f46:	89 4d ac             	mov    %ecx,-0x54(%ebp)
  103f49:	42                   	inc    %edx
  103f4a:	83 45 a4 03          	addl   $0x3,-0x5c(%ebp)
  103f4e:	83 45 a8 05          	addl   $0x5,-0x58(%ebp)
  103f52:	89 f1                	mov    %esi,%ecx
  103f54:	89 fe                	mov    %edi,%esi
  103f56:	89 df                	mov    %ebx,%edi
  103f58:	8b 5d b0             	mov    -0x50(%ebp),%ebx
  103f5b:	01 c8                	add    %ecx,%eax
  103f5d:	89 45 b0             	mov    %eax,-0x50(%ebp)
  103f60:	83 fa 0f             	cmp    $0xf,%edx
  103f63:	77 af                	ja     103f14 <bench_md5_run+0xfc>
  103f65:	89 f8                	mov    %edi,%eax
  103f67:	31 f0                	xor    %esi,%eax
  103f69:	21 d8                	and    %ebx,%eax
  103f6b:	31 f0                	xor    %esi,%eax
  103f6d:	89 d1                	mov    %edx,%ecx
  103f6f:	eb b6                	jmp    103f27 <bench_md5_run+0x10f>
  103f71:	8d 76 00             	lea    0x0(%esi),%esi
  103f74:	83 fa 2f             	cmp    $0x2f,%edx
  103f77:	77 0f                	ja     103f88 <bench_md5_run+0x170>
  103f79:	89 f8                	mov    %edi,%eax
  103f7b:	31 f0                	xor    %esi,%eax
  103f7d:	31 d8                	xor    %ebx,%eax
  103f7f:	8b 4d a4             	mov    -0x5c(%ebp),%ecx
  103f82:	83 e1 0f             	and    $0xf,%ecx
  103f85:	eb a0                	jmp    103f27 <bench_md5_run+0x10f>
  103f87:	90                   	nop
  103f88:	89 f0                	mov    %esi,%eax
  103f8a:	f7 d0                	not    %eax
  103f8c:	09 d8                	or     %ebx,%eax
  103f8e:	31 f8                	xor    %edi,%eax
  103f90:	8b 4d b0             	mov    -0x50(%ebp),%ecx
  103f93:	01 c1                	add    %eax,%ecx
  103f95:	8d 04 12             	lea    (%edx,%edx,1),%eax
  103f98:	01 d0                	add    %edx,%eax
  103f9a:	01 c0                	add    %eax,%eax
  103f9c:	01 d0                	add    %edx,%eax
  103f9e:	83 e0 0f             	and    $0xf,%eax
  103fa1:	03 4c 85 b4          	add    -0x4c(%ebp,%eax,4),%ecx
  103fa5:	89 c8                	mov    %ecx,%eax
  103fa7:	8a 4d ac             	mov    -0x54(%ebp),%cl
  103faa:	d3 c0                	rol    %cl,%eax
  103fac:	01 d8                	add    %ebx,%eax
  103fae:	89 45 b0             	mov    %eax,-0x50(%ebp)
  103fb1:	83 fa 3f             	cmp    $0x3f,%edx
  103fb4:	75 82                	jne    103f38 <bench_md5_run+0x120>
  103fb6:	01 75 9c             	add    %esi,-0x64(%ebp)
  103fb9:	8b 75 b0             	mov    -0x50(%ebp),%esi
  103fbc:	01 75 98             	add    %esi,-0x68(%ebp)
  103fbf:	01 5d 94             	add    %ebx,-0x6c(%ebp)
  103fc2:	01 7d 90             	add    %edi,-0x70(%ebp)
  103fc5:	83 45 a0 40          	addl   $0x40,-0x60(%ebp)
  103fc9:	8b 45 a0             	mov    -0x60(%ebp),%eax
  103fcc:	39 45 88             	cmp    %eax,-0x78(%ebp)
  103fcf:	0f 87 eb fe ff ff    	ja     103ec0 <bench_md5_run+0xa8>
  103fd5:	8b 45 84             	mov    -0x7c(%ebp),%eax
  103fd8:	8b 75 9c             	mov    -0x64(%ebp),%esi
  103fdb:	89 30                	mov    %esi,(%eax)
  103fdd:	8b 75 98             	mov    -0x68(%ebp),%esi
  103fe0:	89 70 04             	mov    %esi,0x4(%eax)
  103fe3:	8b 75 94             	mov    -0x6c(%ebp),%esi
  103fe6:	89 70 08             	mov    %esi,0x8(%eax)
  103fe9:	8b 75 90             	mov    -0x70(%ebp),%esi
  103fec:	89 70 0c             	mov    %esi,0xc(%eax)
  103fef:	83 c4 70             	add    $0x70,%esp
  103ff2:	5b                   	pop    %ebx
  103ff3:	5e                   	pop    %esi
  103ff4:	5f                   	pop    %edi
  103ff5:	5d                   	pop    %ebp
  103ff6:	c3                   	ret    
  103ff7:	c6 03 80             	movb   $0x80,(%ebx)
  103ffa:	89 45 88             	mov    %eax,-0x78(%ebp)
  103ffd:	e9 76 fe ff ff       	jmp    103e78 <bench_md5_run+0x60>
  104002:	66 90                	xchg   %ax,%ax

00104004 <bench_md5_validate>:
  104004:	55                   	push   %ebp
  104005:	89 e5                	mov    %esp,%ebp
  104007:	83 ec 10             	sub    $0x10,%esp
  10400a:	a1 50 58 10 00       	mov    0x105850,%eax
  10400f:	8d 50 10             	lea    0x10(%eax),%edx
  104012:	52                   	push   %edx
  104013:	50                   	push   %eax
  104014:	e8 37 d0 ff ff       	call   101050 <checksum>
  104019:	83 c4 10             	add    $0x10,%esp
  10401c:	8b 15 fc 57 10 00    	mov    0x1057fc,%edx
  104022:	39 42 0c             	cmp    %eax,0xc(%edx)
  104025:	0f 94 c0             	sete   %al
  104028:	0f b6 c0             	movzbl %al,%eax
  10402b:	c9                   	leave  
  10402c:	c3                   	ret    
  10402d:	66 90                	xchg   %ax,%ax
  10402f:	90                   	nop

00104030 <putch>:
  104030:	55                   	push   %ebp
  104031:	89 e5                	mov    %esp,%ebp
  104033:	8b 45 08             	mov    0x8(%ebp),%eax
  104036:	ba f8 03 00 00       	mov    $0x3f8,%edx
  10403b:	ee                   	out    %al,(%dx)
  10403c:	5d                   	pop    %ebp
  10403d:	c3                   	ret    
  10403e:	66 90                	xchg   %ax,%ax

00104040 <halt>:
  104040:	55                   	push   %ebp
  104041:	89 e5                	mov    %esp,%ebp
  104043:	8b 45 08             	mov    0x8(%ebp),%eax
  104046:	d6                   	(bad)  
  104047:	eb fe                	jmp    104047 <halt+0x7>
  104049:	66 90                	xchg   %ax,%ax
  10404b:	90                   	nop

0010404c <_trm_init>:
  10404c:	55                   	push   %ebp
  10404d:	89 e5                	mov    %esp,%ebp
  10404f:	83 ec 14             	sub    $0x14,%esp
  104052:	68 60 50 10 00       	push   $0x105060
  104057:	e8 84 cb ff ff       	call   100be0 <main>
  10405c:	d6                   	(bad)  
  10405d:	83 c4 10             	add    $0x10,%esp
  104060:	eb fe                	jmp    104060 <_trm_init+0x14>
  104062:	66 90                	xchg   %ax,%ax

00104064 <__am_timer_config>:
  104064:	55                   	push   %ebp
  104065:	89 e5                	mov    %esp,%ebp
  104067:	8b 45 08             	mov    0x8(%ebp),%eax
  10406a:	66 c7 00 01 01       	movw   $0x101,(%eax)
  10406f:	5d                   	pop    %ebp
  104070:	c3                   	ret    
  104071:	66 90                	xchg   %ax,%ax
  104073:	90                   	nop

00104074 <__am_input_config>:
  104074:	55                   	push   %ebp
  104075:	89 e5                	mov    %esp,%ebp
  104077:	8b 45 08             	mov    0x8(%ebp),%eax
  10407a:	c6 00 01             	movb   $0x1,(%eax)
  10407d:	5d                   	pop    %ebp
  10407e:	c3                   	ret    
  10407f:	90                   	nop

00104080 <__am_uart_config>:
  104080:	55                   	push   %ebp
  104081:	89 e5                	mov    %esp,%ebp
  104083:	8b 45 08             	mov    0x8(%ebp),%eax
  104086:	c6 00 00             	movb   $0x0,(%eax)
  104089:	5d                   	pop    %ebp
  10408a:	c3                   	ret    
  10408b:	90                   	nop

0010408c <__am_disk_config>:
  10408c:	55                   	push   %ebp
  10408d:	89 e5                	mov    %esp,%ebp
  10408f:	8b 45 08             	mov    0x8(%ebp),%eax
  104092:	c6 00 00             	movb   $0x0,(%eax)
  104095:	5d                   	pop    %ebp
  104096:	c3                   	ret    
  104097:	90                   	nop

00104098 <__am_net_config>:
  104098:	55                   	push   %ebp
  104099:	89 e5                	mov    %esp,%ebp
  10409b:	8b 45 08             	mov    0x8(%ebp),%eax
  10409e:	c6 00 00             	movb   $0x0,(%eax)
  1040a1:	5d                   	pop    %ebp
  1040a2:	c3                   	ret    
  1040a3:	90                   	nop

001040a4 <fail>:
  1040a4:	55                   	push   %ebp
  1040a5:	89 e5                	mov    %esp,%ebp
  1040a7:	53                   	push   %ebx
  1040a8:	50                   	push   %eax
  1040a9:	bb 64 50 10 00       	mov    $0x105064,%ebx
  1040ae:	b8 41 00 00 00       	mov    $0x41,%eax
  1040b3:	90                   	nop
  1040b4:	83 ec 0c             	sub    $0xc,%esp
  1040b7:	50                   	push   %eax
  1040b8:	e8 73 ff ff ff       	call   104030 <putch>
  1040bd:	43                   	inc    %ebx
  1040be:	0f be 03             	movsbl (%ebx),%eax
  1040c1:	83 c4 10             	add    $0x10,%esp
  1040c4:	84 c0                	test   %al,%al
  1040c6:	75 ec                	jne    1040b4 <fail+0x10>
  1040c8:	bb 6f 50 10 00       	mov    $0x10506f,%ebx
  1040cd:	b8 61 00 00 00       	mov    $0x61,%eax
  1040d2:	66 90                	xchg   %ax,%ax
  1040d4:	83 ec 0c             	sub    $0xc,%esp
  1040d7:	50                   	push   %eax
  1040d8:	e8 53 ff ff ff       	call   104030 <putch>
  1040dd:	43                   	inc    %ebx
  1040de:	0f be 03             	movsbl (%ebx),%eax
  1040e1:	83 c4 10             	add    $0x10,%esp
  1040e4:	84 c0                	test   %al,%al
  1040e6:	75 ec                	jne    1040d4 <fail+0x30>
  1040e8:	bb 88 50 10 00       	mov    $0x105088,%ebx
  1040ed:	b8 20 00 00 00       	mov    $0x20,%eax
  1040f2:	66 90                	xchg   %ax,%ax
  1040f4:	83 ec 0c             	sub    $0xc,%esp
  1040f7:	50                   	push   %eax
  1040f8:	e8 33 ff ff ff       	call   104030 <putch>
  1040fd:	43                   	inc    %ebx
  1040fe:	0f be 03             	movsbl (%ebx),%eax
  104101:	83 c4 10             	add    $0x10,%esp
  104104:	84 c0                	test   %al,%al
  104106:	75 ec                	jne    1040f4 <fail+0x50>
  104108:	83 ec 0c             	sub    $0xc,%esp
  10410b:	6a 01                	push   $0x1
  10410d:	e8 2e ff ff ff       	call   104040 <halt>
  104112:	66 90                	xchg   %ax,%ax

00104114 <ioe_init>:
  104114:	55                   	push   %ebp
  104115:	89 e5                	mov    %esp,%ebp
  104117:	83 ec 08             	sub    $0x8,%esp
  10411a:	31 c0                	xor    %eax,%eax
  10411c:	eb 0a                	jmp    104128 <ioe_init+0x14>
  10411e:	66 90                	xchg   %ax,%ax
  104120:	40                   	inc    %eax
  104121:	3d 80 00 00 00       	cmp    $0x80,%eax
  104126:	74 1e                	je     104146 <ioe_init+0x32>
  104128:	8b 14 85 c0 55 10 00 	mov    0x1055c0(,%eax,4),%edx
  10412f:	85 d2                	test   %edx,%edx
  104131:	75 ed                	jne    104120 <ioe_init+0xc>
  104133:	c7 04 85 c0 55 10 00 	movl   $0x1040a4,0x1055c0(,%eax,4)
  10413a:	a4 40 10 00 
  10413e:	40                   	inc    %eax
  10413f:	3d 80 00 00 00       	cmp    $0x80,%eax
  104144:	75 e2                	jne    104128 <ioe_init+0x14>
  104146:	e8 b5 00 00 00       	call   104200 <__am_gpu_init>
  10414b:	e8 24 00 00 00       	call   104174 <__am_timer_init>
  104150:	e8 fb 00 00 00       	call   104250 <__am_audio_init>
  104155:	b0 01                	mov    $0x1,%al
  104157:	c9                   	leave  
  104158:	c3                   	ret    
  104159:	66 90                	xchg   %ax,%ax
  10415b:	90                   	nop

0010415c <ioe_read>:
  10415c:	55                   	push   %ebp
  10415d:	89 e5                	mov    %esp,%ebp
  10415f:	8b 45 08             	mov    0x8(%ebp),%eax
  104162:	8b 55 0c             	mov    0xc(%ebp),%edx
  104165:	89 55 08             	mov    %edx,0x8(%ebp)
  104168:	8b 04 85 c0 55 10 00 	mov    0x1055c0(,%eax,4),%eax
  10416f:	5d                   	pop    %ebp
  104170:	ff e0                	jmp    *%eax
  104172:	66 90                	xchg   %ax,%ax

00104174 <__am_timer_init>:
  104174:	c7 05 5c 58 10 00 00 	movl   $0x0,0x10585c
  10417b:	00 00 00 
  10417e:	c7 05 60 58 10 00 00 	movl   $0x0,0x105860
  104185:	00 00 00 
  104188:	c3                   	ret    
  104189:	66 90                	xchg   %ax,%ax
  10418b:	90                   	nop

0010418c <__am_timer_uptime>:
  10418c:	55                   	push   %ebp
  10418d:	89 e5                	mov    %esp,%ebp
  10418f:	a1 5c 58 10 00       	mov    0x10585c,%eax
  104194:	8b 15 60 58 10 00    	mov    0x105860,%edx
  10419a:	05 e8 03 00 00       	add    $0x3e8,%eax
  10419f:	83 d2 00             	adc    $0x0,%edx
  1041a2:	8b 4d 08             	mov    0x8(%ebp),%ecx
  1041a5:	89 01                	mov    %eax,(%ecx)
  1041a7:	89 51 04             	mov    %edx,0x4(%ecx)
  1041aa:	a3 5c 58 10 00       	mov    %eax,0x10585c
  1041af:	89 15 60 58 10 00    	mov    %edx,0x105860
  1041b5:	5d                   	pop    %ebp
  1041b6:	c3                   	ret    
  1041b7:	90                   	nop

001041b8 <__am_timer_rtc>:
  1041b8:	55                   	push   %ebp
  1041b9:	89 e5                	mov    %esp,%ebp
  1041bb:	8b 45 08             	mov    0x8(%ebp),%eax
  1041be:	c7 40 14 00 00 00 00 	movl   $0x0,0x14(%eax)
  1041c5:	c7 40 10 00 00 00 00 	movl   $0x0,0x10(%eax)
  1041cc:	c7 40 0c 00 00 00 00 	movl   $0x0,0xc(%eax)
  1041d3:	c7 40 08 00 00 00 00 	movl   $0x0,0x8(%eax)
  1041da:	c7 40 04 00 00 00 00 	movl   $0x0,0x4(%eax)
  1041e1:	c7 00 6c 07 00 00    	movl   $0x76c,(%eax)
  1041e7:	5d                   	pop    %ebp
  1041e8:	c3                   	ret    
  1041e9:	66 90                	xchg   %ax,%ax
  1041eb:	90                   	nop

001041ec <__am_input_keybrd>:
  1041ec:	55                   	push   %ebp
  1041ed:	89 e5                	mov    %esp,%ebp
  1041ef:	8b 45 08             	mov    0x8(%ebp),%eax
  1041f2:	c6 00 00             	movb   $0x0,(%eax)
  1041f5:	c7 40 04 00 00 00 00 	movl   $0x0,0x4(%eax)
  1041fc:	5d                   	pop    %ebp
  1041fd:	c3                   	ret    
  1041fe:	66 90                	xchg   %ax,%ax

00104200 <__am_gpu_init>:
  104200:	c3                   	ret    
  104201:	66 90                	xchg   %ax,%ax
  104203:	90                   	nop

00104204 <__am_gpu_config>:
  104204:	55                   	push   %ebp
  104205:	89 e5                	mov    %esp,%ebp
  104207:	8b 45 08             	mov    0x8(%ebp),%eax
  10420a:	66 c7 00 01 00       	movw   $0x1,(%eax)
  10420f:	c7 40 04 00 00 00 00 	movl   $0x0,0x4(%eax)
  104216:	c7 40 08 00 00 00 00 	movl   $0x0,0x8(%eax)
  10421d:	c7 40 0c 00 00 00 00 	movl   $0x0,0xc(%eax)
  104224:	5d                   	pop    %ebp
  104225:	c3                   	ret    
  104226:	66 90                	xchg   %ax,%ax

00104228 <__am_gpu_fbdraw>:
  104228:	55                   	push   %ebp
  104229:	89 e5                	mov    %esp,%ebp
  10422b:	8b 45 08             	mov    0x8(%ebp),%eax
  10422e:	80 78 14 00          	cmpb   $0x0,0x14(%eax)
  104232:	74 0b                	je     10423f <__am_gpu_fbdraw+0x17>
  104234:	b8 01 00 00 00       	mov    $0x1,%eax
  104239:	ba 04 01 00 00       	mov    $0x104,%edx
  10423e:	ef                   	out    %eax,(%dx)
  10423f:	5d                   	pop    %ebp
  104240:	c3                   	ret    
  104241:	66 90                	xchg   %ax,%ax
  104243:	90                   	nop

00104244 <__am_gpu_status>:
  104244:	55                   	push   %ebp
  104245:	89 e5                	mov    %esp,%ebp
  104247:	8b 45 08             	mov    0x8(%ebp),%eax
  10424a:	c6 00 01             	movb   $0x1,(%eax)
  10424d:	5d                   	pop    %ebp
  10424e:	c3                   	ret    
  10424f:	90                   	nop

00104250 <__am_audio_init>:
  104250:	c3                   	ret    
  104251:	66 90                	xchg   %ax,%ax
  104253:	90                   	nop

00104254 <__am_audio_config>:
  104254:	55                   	push   %ebp
  104255:	89 e5                	mov    %esp,%ebp
  104257:	8b 45 08             	mov    0x8(%ebp),%eax
  10425a:	c6 00 00             	movb   $0x0,(%eax)
  10425d:	5d                   	pop    %ebp
  10425e:	c3                   	ret    
  10425f:	90                   	nop

00104260 <__am_audio_ctrl>:
  104260:	c3                   	ret    
  104261:	66 90                	xchg   %ax,%ax
  104263:	90                   	nop

00104264 <__am_audio_status>:
  104264:	55                   	push   %ebp
  104265:	89 e5                	mov    %esp,%ebp
  104267:	8b 45 08             	mov    0x8(%ebp),%eax
  10426a:	c7 00 00 00 00 00    	movl   $0x0,(%eax)
  104270:	5d                   	pop    %ebp
  104271:	c3                   	ret    
  104272:	66 90                	xchg   %ax,%ax

00104274 <__am_audio_play>:
  104274:	c3                   	ret    
  104275:	66 90                	xchg   %ax,%ax
  104277:	90                   	nop

00104278 <__udivmoddi4>:
  104278:	55                   	push   %ebp
  104279:	89 e5                	mov    %esp,%ebp
  10427b:	57                   	push   %edi
  10427c:	56                   	push   %esi
  10427d:	53                   	push   %ebx
  10427e:	83 ec 34             	sub    $0x34,%esp
  104281:	8b 75 08             	mov    0x8(%ebp),%esi
  104284:	89 75 d4             	mov    %esi,-0x2c(%ebp)
  104287:	8b 5d 0c             	mov    0xc(%ebp),%ebx
  10428a:	8b 55 10             	mov    0x10(%ebp),%edx
  10428d:	8b 4d 14             	mov    0x14(%ebp),%ecx
  104290:	89 55 e8             	mov    %edx,-0x18(%ebp)
  104293:	89 4d ec             	mov    %ecx,-0x14(%ebp)
  104296:	89 cf                	mov    %ecx,%edi
  104298:	85 db                	test   %ebx,%ebx
  10429a:	75 34                	jne    1042d0 <__udivmoddi4+0x58>
  10429c:	85 c9                	test   %ecx,%ecx
  10429e:	0f 85 98 01 00 00    	jne    10443c <__udivmoddi4+0x1c4>
  1042a4:	89 d1                	mov    %edx,%ecx
  1042a6:	8b 5d 18             	mov    0x18(%ebp),%ebx
  1042a9:	85 db                	test   %ebx,%ebx
  1042ab:	74 12                	je     1042bf <__udivmoddi4+0x47>
  1042ad:	89 f0                	mov    %esi,%eax
  1042af:	31 d2                	xor    %edx,%edx
  1042b1:	f7 f1                	div    %ecx
  1042b3:	8b 45 18             	mov    0x18(%ebp),%eax
  1042b6:	89 10                	mov    %edx,(%eax)
  1042b8:	c7 40 04 00 00 00 00 	movl   $0x0,0x4(%eax)
  1042bf:	8b 45 d4             	mov    -0x2c(%ebp),%eax
  1042c2:	31 d2                	xor    %edx,%edx
  1042c4:	f7 f1                	div    %ecx
  1042c6:	31 d2                	xor    %edx,%edx
  1042c8:	83 c4 34             	add    $0x34,%esp
  1042cb:	5b                   	pop    %ebx
  1042cc:	5e                   	pop    %esi
  1042cd:	5f                   	pop    %edi
  1042ce:	5d                   	pop    %ebp
  1042cf:	c3                   	ret    
  1042d0:	89 d8                	mov    %ebx,%eax
  1042d2:	8b 4d e8             	mov    -0x18(%ebp),%ecx
  1042d5:	85 c9                	test   %ecx,%ecx
  1042d7:	75 5f                	jne    104338 <__udivmoddi4+0xc0>
  1042d9:	85 ff                	test   %edi,%edi
  1042db:	0f 84 db 01 00 00    	je     1044bc <__udivmoddi4+0x244>
  1042e1:	8b 55 d4             	mov    -0x2c(%ebp),%edx
  1042e4:	85 d2                	test   %edx,%edx
  1042e6:	0f 84 38 02 00 00    	je     104524 <__udivmoddi4+0x2ac>
  1042ec:	8d 57 ff             	lea    -0x1(%edi),%edx
  1042ef:	85 fa                	test   %edi,%edx
  1042f1:	0f 84 7d 02 00 00    	je     104574 <__udivmoddi4+0x2fc>
  1042f7:	0f bd cf             	bsr    %edi,%ecx
  1042fa:	83 f1 1f             	xor    $0x1f,%ecx
  1042fd:	0f bd d3             	bsr    %ebx,%edx
  104300:	83 f2 1f             	xor    $0x1f,%edx
  104303:	29 d1                	sub    %edx,%ecx
  104305:	83 f9 1e             	cmp    $0x1e,%ecx
  104308:	0f 87 b2 01 00 00    	ja     1044c0 <__udivmoddi4+0x248>
  10430e:	8d 79 01             	lea    0x1(%ecx),%edi
  104311:	89 7d c8             	mov    %edi,-0x38(%ebp)
  104314:	ba 20 00 00 00       	mov    $0x20,%edx
  104319:	29 fa                	sub    %edi,%edx
  10431b:	8b 75 d4             	mov    -0x2c(%ebp),%esi
  10431e:	88 d1                	mov    %dl,%cl
  104320:	d3 e6                	shl    %cl,%esi
  104322:	89 f9                	mov    %edi,%ecx
  104324:	d3 eb                	shr    %cl,%ebx
  104326:	88 d1                	mov    %dl,%cl
  104328:	d3 e0                	shl    %cl,%eax
  10432a:	8b 55 d4             	mov    -0x2c(%ebp),%edx
  10432d:	89 f9                	mov    %edi,%ecx
  10432f:	d3 ea                	shr    %cl,%edx
  104331:	09 d0                	or     %edx,%eax
  104333:	31 ff                	xor    %edi,%edi
  104335:	eb 54                	jmp    10438b <__udivmoddi4+0x113>
  104337:	90                   	nop
  104338:	85 ff                	test   %edi,%edi
  10433a:	0f 84 24 01 00 00    	je     104464 <__udivmoddi4+0x1ec>
  104340:	0f bd cf             	bsr    %edi,%ecx
  104343:	83 f1 1f             	xor    $0x1f,%ecx
  104346:	0f bd d3             	bsr    %ebx,%edx
  104349:	83 f2 1f             	xor    $0x1f,%edx
  10434c:	29 d1                	sub    %edx,%ecx
  10434e:	83 f9 1f             	cmp    $0x1f,%ecx
  104351:	0f 87 69 01 00 00    	ja     1044c0 <__udivmoddi4+0x248>
  104357:	8d 79 01             	lea    0x1(%ecx),%edi
  10435a:	89 7d c8             	mov    %edi,-0x38(%ebp)
  10435d:	8b 75 d4             	mov    -0x2c(%ebp),%esi
  104360:	0f 84 32 02 00 00    	je     104598 <__udivmoddi4+0x320>
  104366:	ba 20 00 00 00       	mov    $0x20,%edx
  10436b:	29 fa                	sub    %edi,%edx
  10436d:	89 f9                	mov    %edi,%ecx
  10436f:	d3 eb                	shr    %cl,%ebx
  104371:	88 d1                	mov    %dl,%cl
  104373:	d3 e0                	shl    %cl,%eax
  104375:	89 45 d4             	mov    %eax,-0x2c(%ebp)
  104378:	89 f0                	mov    %esi,%eax
  10437a:	89 f9                	mov    %edi,%ecx
  10437c:	d3 e8                	shr    %cl,%eax
  10437e:	89 c1                	mov    %eax,%ecx
  104380:	8b 45 d4             	mov    -0x2c(%ebp),%eax
  104383:	09 c8                	or     %ecx,%eax
  104385:	88 d1                	mov    %dl,%cl
  104387:	d3 e6                	shl    %cl,%esi
  104389:	31 ff                	xor    %edi,%edi
  10438b:	c7 45 d4 00 00 00 00 	movl   $0x0,-0x2c(%ebp)
  104392:	89 c1                	mov    %eax,%ecx
  104394:	8d 04 1b             	lea    (%ebx,%ebx,1),%eax
  104397:	89 45 d0             	mov    %eax,-0x30(%ebp)
  10439a:	89 ca                	mov    %ecx,%edx
  10439c:	c1 ea 1f             	shr    $0x1f,%edx
  10439f:	89 55 cc             	mov    %edx,-0x34(%ebp)
  1043a2:	8d 04 09             	lea    (%ecx,%ecx,1),%eax
  1043a5:	89 f3                	mov    %esi,%ebx
  1043a7:	c1 eb 1f             	shr    $0x1f,%ebx
  1043aa:	89 da                	mov    %ebx,%edx
  1043ac:	8d 1c 36             	lea    (%esi,%esi,1),%ebx
  1043af:	89 fe                	mov    %edi,%esi
  1043b1:	c1 ee 1f             	shr    $0x1f,%esi
  1043b4:	09 de                	or     %ebx,%esi
  1043b6:	01 ff                	add    %edi,%edi
  1043b8:	0b 7d d4             	or     -0x2c(%ebp),%edi
  1043bb:	09 c2                	or     %eax,%edx
  1043bd:	89 d1                	mov    %edx,%ecx
  1043bf:	8b 45 d0             	mov    -0x30(%ebp),%eax
  1043c2:	0b 45 cc             	or     -0x34(%ebp),%eax
  1043c5:	89 c3                	mov    %eax,%ebx
  1043c7:	89 d0                	mov    %edx,%eax
  1043c9:	f7 d0                	not    %eax
  1043cb:	89 45 e0             	mov    %eax,-0x20(%ebp)
  1043ce:	89 d8                	mov    %ebx,%eax
  1043d0:	f7 d0                	not    %eax
  1043d2:	89 45 e4             	mov    %eax,-0x1c(%ebp)
  1043d5:	8b 45 e0             	mov    -0x20(%ebp),%eax
  1043d8:	8b 55 e4             	mov    -0x1c(%ebp),%edx
  1043db:	03 45 e8             	add    -0x18(%ebp),%eax
  1043de:	13 55 ec             	adc    -0x14(%ebp),%edx
  1043e1:	89 d0                	mov    %edx,%eax
  1043e3:	c1 f8 1f             	sar    $0x1f,%eax
  1043e6:	89 c2                	mov    %eax,%edx
  1043e8:	83 e2 01             	and    $0x1,%edx
  1043eb:	89 55 d4             	mov    %edx,-0x2c(%ebp)
  1043ee:	8b 55 e8             	mov    -0x18(%ebp),%edx
  1043f1:	21 c2                	and    %eax,%edx
  1043f3:	89 55 d8             	mov    %edx,-0x28(%ebp)
  1043f6:	23 45 ec             	and    -0x14(%ebp),%eax
  1043f9:	89 45 dc             	mov    %eax,-0x24(%ebp)
  1043fc:	2b 4d d8             	sub    -0x28(%ebp),%ecx
  1043ff:	1b 5d dc             	sbb    -0x24(%ebp),%ebx
  104402:	ff 4d c8             	decl   -0x38(%ebp)
  104405:	75 8d                	jne    104394 <__udivmoddi4+0x11c>
  104407:	89 75 c4             	mov    %esi,-0x3c(%ebp)
  10440a:	89 7d c0             	mov    %edi,-0x40(%ebp)
  10440d:	8b 75 c0             	mov    -0x40(%ebp),%esi
  104410:	8b 7d c4             	mov    -0x3c(%ebp),%edi
  104413:	01 f6                	add    %esi,%esi
  104415:	11 ff                	adc    %edi,%edi
  104417:	8b 45 d4             	mov    -0x2c(%ebp),%eax
  10441a:	09 f0                	or     %esi,%eax
  10441c:	89 fa                	mov    %edi,%edx
  10441e:	8b 75 18             	mov    0x18(%ebp),%esi
  104421:	85 f6                	test   %esi,%esi
  104423:	0f 84 9f fe ff ff    	je     1042c8 <__udivmoddi4+0x50>
  104429:	8b 7d 18             	mov    0x18(%ebp),%edi
  10442c:	89 0f                	mov    %ecx,(%edi)
  10442e:	89 5f 04             	mov    %ebx,0x4(%edi)
  104431:	83 c4 34             	add    $0x34,%esp
  104434:	5b                   	pop    %ebx
  104435:	5e                   	pop    %esi
  104436:	5f                   	pop    %edi
  104437:	5d                   	pop    %ebp
  104438:	c3                   	ret    
  104439:	8d 76 00             	lea    0x0(%esi),%esi
  10443c:	8b 4d 18             	mov    0x18(%ebp),%ecx
  10443f:	85 c9                	test   %ecx,%ecx
  104441:	0f 84 84 00 00 00    	je     1044cb <__udivmoddi4+0x253>
  104447:	8b 45 18             	mov    0x18(%ebp),%eax
  10444a:	8b 5d d4             	mov    -0x2c(%ebp),%ebx
  10444d:	89 18                	mov    %ebx,(%eax)
  10444f:	c7 40 04 00 00 00 00 	movl   $0x0,0x4(%eax)
  104456:	31 c0                	xor    %eax,%eax
  104458:	31 d2                	xor    %edx,%edx
  10445a:	83 c4 34             	add    $0x34,%esp
  10445d:	5b                   	pop    %ebx
  10445e:	5e                   	pop    %esi
  10445f:	5f                   	pop    %edi
  104460:	5d                   	pop    %ebp
  104461:	c3                   	ret    
  104462:	66 90                	xchg   %ax,%ax
  104464:	8d 51 ff             	lea    -0x1(%ecx),%edx
  104467:	85 ca                	test   %ecx,%edx
  104469:	75 69                	jne    1044d4 <__udivmoddi4+0x25c>
  10446b:	8b 7d 18             	mov    0x18(%ebp),%edi
  10446e:	85 ff                	test   %edi,%edi
  104470:	74 0f                	je     104481 <__udivmoddi4+0x209>
  104472:	23 55 d4             	and    -0x2c(%ebp),%edx
  104475:	8b 45 18             	mov    0x18(%ebp),%eax
  104478:	89 10                	mov    %edx,(%eax)
  10447a:	c7 40 04 00 00 00 00 	movl   $0x0,0x4(%eax)
  104481:	83 f9 01             	cmp    $0x1,%ecx
  104484:	0f 84 d6 00 00 00    	je     104560 <__udivmoddi4+0x2e8>
  10448a:	0f bc f9             	bsf    %ecx,%edi
  10448d:	c7 45 c0 00 00 00 00 	movl   $0x0,-0x40(%ebp)
  104494:	89 d8                	mov    %ebx,%eax
  104496:	89 f9                	mov    %edi,%ecx
  104498:	d3 e8                	shr    %cl,%eax
  10449a:	89 45 c4             	mov    %eax,-0x3c(%ebp)
  10449d:	b9 20 00 00 00       	mov    $0x20,%ecx
  1044a2:	29 f9                	sub    %edi,%ecx
  1044a4:	d3 e3                	shl    %cl,%ebx
  1044a6:	8b 75 d4             	mov    -0x2c(%ebp),%esi
  1044a9:	89 f9                	mov    %edi,%ecx
  1044ab:	d3 ee                	shr    %cl,%esi
  1044ad:	09 de                	or     %ebx,%esi
  1044af:	89 f0                	mov    %esi,%eax
  1044b1:	8b 55 c4             	mov    -0x3c(%ebp),%edx
  1044b4:	e9 0f fe ff ff       	jmp    1042c8 <__udivmoddi4+0x50>
  1044b9:	8d 76 00             	lea    0x0(%esi),%esi
  1044bc:	0f 0b                	ud2    
  1044be:	66 90                	xchg   %ax,%ax
  1044c0:	8b 45 18             	mov    0x18(%ebp),%eax
  1044c3:	85 c0                	test   %eax,%eax
  1044c5:	0f 85 81 00 00 00    	jne    10454c <__udivmoddi4+0x2d4>
  1044cb:	31 c0                	xor    %eax,%eax
  1044cd:	31 d2                	xor    %edx,%edx
  1044cf:	e9 f4 fd ff ff       	jmp    1042c8 <__udivmoddi4+0x50>
  1044d4:	0f bd c9             	bsr    %ecx,%ecx
  1044d7:	83 f1 1f             	xor    $0x1f,%ecx
  1044da:	0f bd d3             	bsr    %ebx,%edx
  1044dd:	83 f2 1f             	xor    $0x1f,%edx
  1044e0:	89 cb                	mov    %ecx,%ebx
  1044e2:	29 d3                	sub    %edx,%ebx
  1044e4:	8d 4b 21             	lea    0x21(%ebx),%ecx
  1044e7:	89 4d c8             	mov    %ecx,-0x38(%ebp)
  1044ea:	8b 75 d4             	mov    -0x2c(%ebp),%esi
  1044ed:	83 fb ff             	cmp    $0xffffffff,%ebx
  1044f0:	74 7a                	je     10456c <__udivmoddi4+0x2f4>
  1044f2:	83 f9 1f             	cmp    $0x1f,%ecx
  1044f5:	0f 87 a9 00 00 00    	ja     1045a4 <__udivmoddi4+0x32c>
  1044fb:	ba 20 00 00 00       	mov    $0x20,%edx
  104500:	29 ca                	sub    %ecx,%edx
  104502:	89 c3                	mov    %eax,%ebx
  104504:	d3 eb                	shr    %cl,%ebx
  104506:	88 d1                	mov    %dl,%cl
  104508:	d3 e0                	shl    %cl,%eax
  10450a:	89 45 d4             	mov    %eax,-0x2c(%ebp)
  10450d:	89 f0                	mov    %esi,%eax
  10450f:	8a 4d c8             	mov    -0x38(%ebp),%cl
  104512:	d3 e8                	shr    %cl,%eax
  104514:	89 c1                	mov    %eax,%ecx
  104516:	8b 45 d4             	mov    -0x2c(%ebp),%eax
  104519:	09 c8                	or     %ecx,%eax
  10451b:	88 d1                	mov    %dl,%cl
  10451d:	d3 e6                	shl    %cl,%esi
  10451f:	e9 67 fe ff ff       	jmp    10438b <__udivmoddi4+0x113>
  104524:	8b 45 18             	mov    0x18(%ebp),%eax
  104527:	85 c0                	test   %eax,%eax
  104529:	74 12                	je     10453d <__udivmoddi4+0x2c5>
  10452b:	89 d8                	mov    %ebx,%eax
  10452d:	31 d2                	xor    %edx,%edx
  10452f:	f7 f7                	div    %edi
  104531:	8b 45 18             	mov    0x18(%ebp),%eax
  104534:	c7 00 00 00 00 00    	movl   $0x0,(%eax)
  10453a:	89 50 04             	mov    %edx,0x4(%eax)
  10453d:	89 d8                	mov    %ebx,%eax
  10453f:	31 d2                	xor    %edx,%edx
  104541:	f7 f7                	div    %edi
  104543:	31 d2                	xor    %edx,%edx
  104545:	e9 7e fd ff ff       	jmp    1042c8 <__udivmoddi4+0x50>
  10454a:	66 90                	xchg   %ax,%ax
  10454c:	8b 45 18             	mov    0x18(%ebp),%eax
  10454f:	8b 7d d4             	mov    -0x2c(%ebp),%edi
  104552:	89 38                	mov    %edi,(%eax)
  104554:	89 58 04             	mov    %ebx,0x4(%eax)
  104557:	31 c0                	xor    %eax,%eax
  104559:	31 d2                	xor    %edx,%edx
  10455b:	e9 68 fd ff ff       	jmp    1042c8 <__udivmoddi4+0x50>
  104560:	8b 45 d4             	mov    -0x2c(%ebp),%eax
  104563:	89 da                	mov    %ebx,%edx
  104565:	e9 5e fd ff ff       	jmp    1042c8 <__udivmoddi4+0x50>
  10456a:	66 90                	xchg   %ax,%ax
  10456c:	31 db                	xor    %ebx,%ebx
  10456e:	e9 18 fe ff ff       	jmp    10438b <__udivmoddi4+0x113>
  104573:	90                   	nop
  104574:	8b 45 18             	mov    0x18(%ebp),%eax
  104577:	85 c0                	test   %eax,%eax
  104579:	74 0d                	je     104588 <__udivmoddi4+0x310>
  10457b:	21 da                	and    %ebx,%edx
  10457d:	8b 45 18             	mov    0x18(%ebp),%eax
  104580:	8b 75 d4             	mov    -0x2c(%ebp),%esi
  104583:	89 30                	mov    %esi,(%eax)
  104585:	89 50 04             	mov    %edx,0x4(%eax)
  104588:	0f bc cf             	bsf    %edi,%ecx
  10458b:	89 d8                	mov    %ebx,%eax
  10458d:	d3 e8                	shr    %cl,%eax
  10458f:	31 d2                	xor    %edx,%edx
  104591:	e9 32 fd ff ff       	jmp    1042c8 <__udivmoddi4+0x50>
  104596:	66 90                	xchg   %ax,%ax
  104598:	31 db                	xor    %ebx,%ebx
  10459a:	31 ff                	xor    %edi,%edi
  10459c:	e9 ea fd ff ff       	jmp    10438b <__udivmoddi4+0x113>
  1045a1:	8d 76 00             	lea    0x0(%esi),%esi
  1045a4:	b9 40 00 00 00       	mov    $0x40,%ecx
  1045a9:	2b 4d c8             	sub    -0x38(%ebp),%ecx
  1045ac:	89 f7                	mov    %esi,%edi
  1045ae:	d3 e7                	shl    %cl,%edi
  1045b0:	8d 53 01             	lea    0x1(%ebx),%edx
  1045b3:	89 c3                	mov    %eax,%ebx
  1045b5:	d3 e3                	shl    %cl,%ebx
  1045b7:	89 55 d4             	mov    %edx,-0x2c(%ebp)
  1045ba:	88 d1                	mov    %dl,%cl
  1045bc:	d3 ee                	shr    %cl,%esi
  1045be:	09 f3                	or     %esi,%ebx
  1045c0:	89 de                	mov    %ebx,%esi
  1045c2:	8a 4d d4             	mov    -0x2c(%ebp),%cl
  1045c5:	d3 e8                	shr    %cl,%eax
  1045c7:	31 db                	xor    %ebx,%ebx
  1045c9:	e9 bd fd ff ff       	jmp    10438b <__udivmoddi4+0x113>
  1045ce:	66 90                	xchg   %ax,%ax

001045d0 <__udivdi3>:
  1045d0:	55                   	push   %ebp
  1045d1:	89 e5                	mov    %esp,%ebp
  1045d3:	50                   	push   %eax
  1045d4:	6a 00                	push   $0x0
  1045d6:	ff 75 14             	pushl  0x14(%ebp)
  1045d9:	ff 75 10             	pushl  0x10(%ebp)
  1045dc:	ff 75 0c             	pushl  0xc(%ebp)
  1045df:	ff 75 08             	pushl  0x8(%ebp)
  1045e2:	e8 91 fc ff ff       	call   104278 <__udivmoddi4>
  1045e7:	c9                   	leave  
  1045e8:	c3                   	ret    
  1045e9:	66 90                	xchg   %ax,%ax
  1045eb:	90                   	nop

001045ec <vsprintf>:
  1045ec:	55                   	push   %ebp
  1045ed:	89 e5                	mov    %esp,%ebp
  1045ef:	57                   	push   %edi
  1045f0:	56                   	push   %esi
  1045f1:	53                   	push   %ebx
  1045f2:	83 ec 3c             	sub    $0x3c,%esp
  1045f5:	8b 7d 0c             	mov    0xc(%ebp),%edi
  1045f8:	8b 55 10             	mov    0x10(%ebp),%edx
  1045fb:	8a 07                	mov    (%edi),%al
  1045fd:	31 db                	xor    %ebx,%ebx
  1045ff:	84 c0                	test   %al,%al
  104601:	75 19                	jne    10461c <vsprintf+0x30>
  104603:	eb 45                	jmp    10464a <vsprintf+0x5e>
  104605:	8d 76 00             	lea    0x0(%esi),%esi
  104608:	8b 4d 08             	mov    0x8(%ebp),%ecx
  10460b:	88 04 19             	mov    %al,(%ecx,%ebx,1)
  10460e:	43                   	inc    %ebx
  10460f:	89 f0                	mov    %esi,%eax
  104611:	89 fe                	mov    %edi,%esi
  104613:	89 c7                	mov    %eax,%edi
  104615:	8a 46 01             	mov    0x1(%esi),%al
  104618:	84 c0                	test   %al,%al
  10461a:	74 2e                	je     10464a <vsprintf+0x5e>
  10461c:	8d 77 01             	lea    0x1(%edi),%esi
  10461f:	3c 25                	cmp    $0x25,%al
  104621:	75 e5                	jne    104608 <vsprintf+0x1c>
  104623:	8a 4f 01             	mov    0x1(%edi),%cl
  104626:	83 c7 02             	add    $0x2,%edi
  104629:	8d 41 bf             	lea    -0x41(%ecx),%eax
  10462c:	3c 37                	cmp    $0x37,%al
  10462e:	77 0c                	ja     10463c <vsprintf+0x50>
  104630:	0f b6 c0             	movzbl %al,%eax
  104633:	ff 24 85 38 51 10 00 	jmp    *0x105138(,%eax,4)
  10463a:	66 90                	xchg   %ax,%ax
  10463c:	8b 45 08             	mov    0x8(%ebp),%eax
  10463f:	88 0c 18             	mov    %cl,(%eax,%ebx,1)
  104642:	43                   	inc    %ebx
  104643:	8a 46 01             	mov    0x1(%esi),%al
  104646:	84 c0                	test   %al,%al
  104648:	75 d2                	jne    10461c <vsprintf+0x30>
  10464a:	89 d8                	mov    %ebx,%eax
  10464c:	8d 65 f4             	lea    -0xc(%ebp),%esp
  10464f:	5b                   	pop    %ebx
  104650:	5e                   	pop    %esi
  104651:	5f                   	pop    %edi
  104652:	5d                   	pop    %ebp
  104653:	c3                   	ret    
  104654:	8d 42 04             	lea    0x4(%edx),%eax
  104657:	89 45 c0             	mov    %eax,-0x40(%ebp)
  10465a:	83 ec 08             	sub    $0x8,%esp
  10465d:	8d 45 d3             	lea    -0x2d(%ebp),%eax
  104660:	50                   	push   %eax
  104661:	ff 32                	pushl  (%edx)
  104663:	e8 04 01 00 00       	call   10476c <itoa>
  104668:	89 c2                	mov    %eax,%edx
  10466a:	83 c4 10             	add    $0x10,%esp
  10466d:	85 c0                	test   %eax,%eax
  10466f:	7e 69                	jle    1046da <vsprintf+0xee>
  104671:	31 c0                	xor    %eax,%eax
  104673:	8b 4d 08             	mov    0x8(%ebp),%ecx
  104676:	01 d9                	add    %ebx,%ecx
  104678:	89 5d bc             	mov    %ebx,-0x44(%ebp)
  10467b:	90                   	nop
  10467c:	40                   	inc    %eax
  10467d:	8a 5c 05 d2          	mov    -0x2e(%ebp,%eax,1),%bl
  104681:	88 5d c4             	mov    %bl,-0x3c(%ebp)
  104684:	88 5c 01 ff          	mov    %bl,-0x1(%ecx,%eax,1)
  104688:	39 c2                	cmp    %eax,%edx
  10468a:	75 f0                	jne    10467c <vsprintf+0x90>
  10468c:	8b 5d bc             	mov    -0x44(%ebp),%ebx
  10468f:	01 d3                	add    %edx,%ebx
  104691:	8b 55 c0             	mov    -0x40(%ebp),%edx
  104694:	e9 7c ff ff ff       	jmp    104615 <vsprintf+0x29>
  104699:	8b 02                	mov    (%edx),%eax
  10469b:	8a 80 b8 50 10 00    	mov    0x1050b8(%eax),%al
  1046a1:	8b 4d 08             	mov    0x8(%ebp),%ecx
  1046a4:	88 04 19             	mov    %al,(%ecx,%ebx,1)
  1046a7:	83 c2 04             	add    $0x4,%edx
  1046aa:	43                   	inc    %ebx
  1046ab:	e9 65 ff ff ff       	jmp    104615 <vsprintf+0x29>
  1046b0:	8d 4a 04             	lea    0x4(%edx),%ecx
  1046b3:	8b 12                	mov    (%edx),%edx
  1046b5:	8a 02                	mov    (%edx),%al
  1046b7:	84 c0                	test   %al,%al
  1046b9:	74 27                	je     1046e2 <vsprintf+0xf6>
  1046bb:	29 da                	sub    %ebx,%edx
  1046bd:	89 75 c4             	mov    %esi,-0x3c(%ebp)
  1046c0:	8b 75 08             	mov    0x8(%ebp),%esi
  1046c3:	90                   	nop
  1046c4:	43                   	inc    %ebx
  1046c5:	88 44 1e ff          	mov    %al,-0x1(%esi,%ebx,1)
  1046c9:	8a 04 1a             	mov    (%edx,%ebx,1),%al
  1046cc:	84 c0                	test   %al,%al
  1046ce:	75 f4                	jne    1046c4 <vsprintf+0xd8>
  1046d0:	8b 75 c4             	mov    -0x3c(%ebp),%esi
  1046d3:	89 ca                	mov    %ecx,%edx
  1046d5:	e9 3b ff ff ff       	jmp    104615 <vsprintf+0x29>
  1046da:	8b 55 c0             	mov    -0x40(%ebp),%edx
  1046dd:	e9 33 ff ff ff       	jmp    104615 <vsprintf+0x29>
  1046e2:	89 ca                	mov    %ecx,%edx
  1046e4:	e9 2c ff ff ff       	jmp    104615 <vsprintf+0x29>
  1046e9:	66 90                	xchg   %ax,%ax
  1046eb:	90                   	nop

001046ec <printf>:
  1046ec:	55                   	push   %ebp
  1046ed:	89 e5                	mov    %esp,%ebp
  1046ef:	57                   	push   %edi
  1046f0:	56                   	push   %esi
  1046f1:	53                   	push   %ebx
  1046f2:	81 ec 90 00 00 00    	sub    $0x90,%esp
  1046f8:	8d 45 0c             	lea    0xc(%ebp),%eax
  1046fb:	50                   	push   %eax
  1046fc:	ff 75 08             	pushl  0x8(%ebp)
  1046ff:	8d 9d 68 ff ff ff    	lea    -0x98(%ebp),%ebx
  104705:	53                   	push   %ebx
  104706:	e8 e1 fe ff ff       	call   1045ec <vsprintf>
  10470b:	89 c6                	mov    %eax,%esi
  10470d:	83 c4 10             	add    $0x10,%esp
  104710:	85 c0                	test   %eax,%eax
  104712:	7e 18                	jle    10472c <printf+0x40>
  104714:	8d 3c 03             	lea    (%ebx,%eax,1),%edi
  104717:	90                   	nop
  104718:	83 ec 0c             	sub    $0xc,%esp
  10471b:	0f be 03             	movsbl (%ebx),%eax
  10471e:	50                   	push   %eax
  10471f:	e8 0c f9 ff ff       	call   104030 <putch>
  104724:	43                   	inc    %ebx
  104725:	83 c4 10             	add    $0x10,%esp
  104728:	39 fb                	cmp    %edi,%ebx
  10472a:	75 ec                	jne    104718 <printf+0x2c>
  10472c:	89 f0                	mov    %esi,%eax
  10472e:	8d 65 f4             	lea    -0xc(%ebp),%esp
  104731:	5b                   	pop    %ebx
  104732:	5e                   	pop    %esi
  104733:	5f                   	pop    %edi
  104734:	5d                   	pop    %ebp
  104735:	c3                   	ret    
  104736:	66 90                	xchg   %ax,%ax

00104738 <strcmp>:
  104738:	55                   	push   %ebp
  104739:	89 e5                	mov    %esp,%ebp
  10473b:	56                   	push   %esi
  10473c:	53                   	push   %ebx
  10473d:	8b 5d 08             	mov    0x8(%ebp),%ebx
  104740:	8b 75 0c             	mov    0xc(%ebp),%esi
  104743:	8a 0b                	mov    (%ebx),%cl
  104745:	84 c9                	test   %cl,%cl
  104747:	75 12                	jne    10475b <strcmp+0x23>
  104749:	eb 17                	jmp    104762 <strcmp+0x2a>
  10474b:	90                   	nop
  10474c:	0f be d1             	movsbl %cl,%edx
  10474f:	29 c2                	sub    %eax,%edx
  104751:	75 11                	jne    104764 <strcmp+0x2c>
  104753:	43                   	inc    %ebx
  104754:	46                   	inc    %esi
  104755:	8a 0b                	mov    (%ebx),%cl
  104757:	84 c9                	test   %cl,%cl
  104759:	74 09                	je     104764 <strcmp+0x2c>
  10475b:	0f be 06             	movsbl (%esi),%eax
  10475e:	84 c0                	test   %al,%al
  104760:	75 ea                	jne    10474c <strcmp+0x14>
  104762:	31 d2                	xor    %edx,%edx
  104764:	89 d0                	mov    %edx,%eax
  104766:	5b                   	pop    %ebx
  104767:	5e                   	pop    %esi
  104768:	5d                   	pop    %ebp
  104769:	c3                   	ret    
  10476a:	66 90                	xchg   %ax,%ax

0010476c <itoa>:
  10476c:	55                   	push   %ebp
  10476d:	89 e5                	mov    %esp,%ebp
  10476f:	57                   	push   %edi
  104770:	56                   	push   %esi
  104771:	53                   	push   %ebx
  104772:	83 ec 1c             	sub    $0x1c,%esp
  104775:	8b 7d 08             	mov    0x8(%ebp),%edi
  104778:	85 ff                	test   %edi,%edi
  10477a:	79 08                	jns    104784 <itoa+0x18>
  10477c:	f7 df                	neg    %edi
  10477e:	8b 45 0c             	mov    0xc(%ebp),%eax
  104781:	c6 00 2d             	movb   $0x2d,(%eax)
  104784:	c7 45 e4 13 00 00 00 	movl   $0x13,-0x1c(%ebp)
  10478b:	c7 45 e0 00 00 00 00 	movl   $0x0,-0x20(%ebp)
  104792:	89 fb                	mov    %edi,%ebx
  104794:	8b 45 e4             	mov    -0x1c(%ebp),%eax
  104797:	85 c0                	test   %eax,%eax
  104799:	0f 8e b0 00 00 00    	jle    10484f <itoa+0xe3>
  10479f:	90                   	nop
  1047a0:	31 c9                	xor    %ecx,%ecx
  1047a2:	b8 01 00 00 00       	mov    $0x1,%eax
  1047a7:	31 d2                	xor    %edx,%edx
  1047a9:	8b 7d e4             	mov    -0x1c(%ebp),%edi
  1047ac:	89 5d 08             	mov    %ebx,0x8(%ebp)
  1047af:	90                   	nop
  1047b0:	6b f2 0a             	imul   $0xa,%edx,%esi
  1047b3:	bb 0a 00 00 00       	mov    $0xa,%ebx
  1047b8:	f7 e3                	mul    %ebx
  1047ba:	01 f2                	add    %esi,%edx
  1047bc:	41                   	inc    %ecx
  1047bd:	39 cf                	cmp    %ecx,%edi
  1047bf:	75 ef                	jne    1047b0 <itoa+0x44>
  1047c1:	8b 5d 08             	mov    0x8(%ebp),%ebx
  1047c4:	89 de                	mov    %ebx,%esi
  1047c6:	89 df                	mov    %ebx,%edi
  1047c8:	c1 ff 1f             	sar    $0x1f,%edi
  1047cb:	83 7d e0 00          	cmpl   $0x0,-0x20(%ebp)
  1047cf:	0f 85 97 00 00 00    	jne    10486c <itoa+0x100>
  1047d5:	89 5d e8             	mov    %ebx,-0x18(%ebp)
  1047d8:	89 7d ec             	mov    %edi,-0x14(%ebp)
  1047db:	39 c6                	cmp    %eax,%esi
  1047dd:	89 fe                	mov    %edi,%esi
  1047df:	19 d6                	sbb    %edx,%esi
  1047e1:	73 29                	jae    10480c <itoa+0xa0>
  1047e3:	85 c9                	test   %ecx,%ecx
  1047e5:	0f 84 91 00 00 00    	je     10487c <itoa+0x110>
  1047eb:	ff 4d e4             	decl   -0x1c(%ebp)
  1047ee:	8b 45 e4             	mov    -0x1c(%ebp),%eax
  1047f1:	85 c0                	test   %eax,%eax
  1047f3:	7f ab                	jg     1047a0 <itoa+0x34>
  1047f5:	8b 75 e8             	mov    -0x18(%ebp),%esi
  1047f8:	8b 7d ec             	mov    -0x14(%ebp),%edi
  1047fb:	89 c1                	mov    %eax,%ecx
  1047fd:	b8 01 00 00 00       	mov    $0x1,%eax
  104802:	31 d2                	xor    %edx,%edx
  104804:	39 c6                	cmp    %eax,%esi
  104806:	89 fe                	mov    %edi,%esi
  104808:	19 d6                	sbb    %edx,%esi
  10480a:	72 d7                	jb     1047e3 <itoa+0x77>
  10480c:	c7 45 e8 00 00 00 00 	movl   $0x0,-0x18(%ebp)
  104813:	89 4d dc             	mov    %ecx,-0x24(%ebp)
  104816:	89 c1                	mov    %eax,%ecx
  104818:	29 cb                	sub    %ecx,%ebx
  10481a:	ff 45 e8             	incl   -0x18(%ebp)
  10481d:	89 df                	mov    %ebx,%edi
  10481f:	c1 ff 1f             	sar    $0x1f,%edi
  104822:	39 c3                	cmp    %eax,%ebx
  104824:	19 d7                	sbb    %edx,%edi
  104826:	73 f0                	jae    104818 <itoa+0xac>
  104828:	8b 4d dc             	mov    -0x24(%ebp),%ecx
  10482b:	8a 45 e8             	mov    -0x18(%ebp),%al
  10482e:	83 c0 30             	add    $0x30,%eax
  104831:	8b 55 e0             	mov    -0x20(%ebp),%edx
  104834:	ff 45 e0             	incl   -0x20(%ebp)
  104837:	8b 7d 0c             	mov    0xc(%ebp),%edi
  10483a:	88 04 17             	mov    %al,(%edi,%edx,1)
  10483d:	85 c9                	test   %ecx,%ecx
  10483f:	74 48                	je     104889 <itoa+0x11d>
  104841:	ff 4d e4             	decl   -0x1c(%ebp)
  104844:	8b 45 e4             	mov    -0x1c(%ebp),%eax
  104847:	85 c0                	test   %eax,%eax
  104849:	0f 8f 51 ff ff ff    	jg     1047a0 <itoa+0x34>
  10484f:	8b 4d e4             	mov    -0x1c(%ebp),%ecx
  104852:	b8 01 00 00 00       	mov    $0x1,%eax
  104857:	31 d2                	xor    %edx,%edx
  104859:	89 de                	mov    %ebx,%esi
  10485b:	89 df                	mov    %ebx,%edi
  10485d:	c1 ff 1f             	sar    $0x1f,%edi
  104860:	83 7d e0 00          	cmpl   $0x0,-0x20(%ebp)
  104864:	0f 84 6b ff ff ff    	je     1047d5 <itoa+0x69>
  10486a:	66 90                	xchg   %ax,%ax
  10486c:	39 c3                	cmp    %eax,%ebx
  10486e:	19 d7                	sbb    %edx,%edi
  104870:	73 9a                	jae    10480c <itoa+0xa0>
  104872:	8b 55 e0             	mov    -0x20(%ebp),%edx
  104875:	b0 30                	mov    $0x30,%al
  104877:	eb bb                	jmp    104834 <itoa+0xc8>
  104879:	8d 76 00             	lea    0x0(%esi),%esi
  10487c:	8b 45 0c             	mov    0xc(%ebp),%eax
  10487f:	c6 00 30             	movb   $0x30,(%eax)
  104882:	c7 45 e0 01 00 00 00 	movl   $0x1,-0x20(%ebp)
  104889:	8b 45 0c             	mov    0xc(%ebp),%eax
  10488c:	8b 55 e0             	mov    -0x20(%ebp),%edx
  10488f:	c6 04 10 00          	movb   $0x0,(%eax,%edx,1)
  104893:	89 d0                	mov    %edx,%eax
  104895:	83 c4 1c             	add    $0x1c,%esp
  104898:	5b                   	pop    %ebx
  104899:	5e                   	pop    %esi
  10489a:	5f                   	pop    %edi
  10489b:	5d                   	pop    %ebp
  10489c:	c3                   	ret    
