
/home/liaozetao/Documents/ics/am-kernels/tests/am-tests/build/amtest-x86-nemu.elf:     file format elf32-i386


Disassembly of section .text:

00100000 <_start>:
  100000:	bd 00 00 00 00       	mov    $0x0,%ebp
  100005:	bc 00 d0 19 00       	mov    $0x19d000,%esp
  10000a:	e8 c1 0c 00 00       	call   100cd0 <_trm_init>
  10000f:	90                   	nop

00100010 <main>:
  100010:	8d 4c 24 04          	lea    0x4(%esp),%ecx
  100014:	83 e4 f0             	and    $0xfffffff0,%esp
  100017:	ff 71 fc             	pushl  -0x4(%ecx)
  10001a:	55                   	push   %ebp
  10001b:	89 e5                	mov    %esp,%ebp
  10001d:	53                   	push   %ebx
  10001e:	51                   	push   %ecx
  10001f:	8b 01                	mov    (%ecx),%eax
  100021:	8a 00                	mov    (%eax),%al
  100023:	83 e8 61             	sub    $0x61,%eax
  100026:	3c 15                	cmp    $0x15,%al
  100028:	77 0a                	ja     100034 <main+0x24>
  10002a:	0f b6 c0             	movzbl %al,%eax
  10002d:	ff 24 85 08 18 10 00 	jmp    *0x101808(,%eax,4)
  100034:	83 ec 0c             	sub    $0xc,%esp
  100037:	68 e0 17 10 00       	push   $0x1017e0
  10003c:	e8 af 16 00 00       	call   1016f0 <printf>
  100041:	83 c4 10             	add    $0x10,%esp
  100044:	31 db                	xor    %ebx,%ebx
  100046:	66 90                	xchg   %ax,%ax
  100048:	43                   	inc    %ebx
  100049:	81 fb 00 01 00 00    	cmp    $0x100,%ebx
  10004f:	74 24                	je     100075 <main+0x65>
  100051:	8b 04 9d 20 19 10 00 	mov    0x101920(,%ebx,4),%eax
  100058:	85 c0                	test   %eax,%eax
  10005a:	74 ec                	je     100048 <main+0x38>
  10005c:	52                   	push   %edx
  10005d:	50                   	push   %eax
  10005e:	53                   	push   %ebx
  10005f:	68 fc 17 10 00       	push   $0x1017fc
  100064:	e8 87 16 00 00       	call   1016f0 <printf>
  100069:	83 c4 10             	add    $0x10,%esp
  10006c:	43                   	inc    %ebx
  10006d:	81 fb 00 01 00 00    	cmp    $0x100,%ebx
  100073:	75 dc                	jne    100051 <main+0x41>
  100075:	31 c0                	xor    %eax,%eax
  100077:	8d 65 f8             	lea    -0x8(%ebp),%esp
  10007a:	59                   	pop    %ecx
  10007b:	5b                   	pop    %ebx
  10007c:	5d                   	pop    %ebp
  10007d:	8d 61 fc             	lea    -0x4(%ecx),%esp
  100080:	c3                   	ret    
  100081:	c7 05 60 05 11 00 10 	movl   $0x100310,0x110560
  100088:	03 10 00 
  10008b:	e8 08 0d 00 00       	call   100d98 <ioe_init>
  100090:	e8 7b 02 00 00       	call   100310 <audio_test>
  100095:	eb de                	jmp    100075 <main+0x65>
  100097:	c7 05 60 05 11 00 d4 	movl   $0x1004d4,0x110560
  10009e:	04 10 00 
  1000a1:	e8 f2 0c 00 00       	call   100d98 <ioe_init>
  1000a6:	e8 29 04 00 00       	call   1004d4 <devscan>
  1000ab:	eb c8                	jmp    100075 <main+0x65>
  1000ad:	c7 05 60 05 11 00 9c 	movl   $0x10049c,0x110560
  1000b4:	04 10 00 
  1000b7:	e8 e0 03 00 00       	call   10049c <hello>
  1000bc:	eb b7                	jmp    100075 <main+0x65>
  1000be:	c7 05 60 05 11 00 ac 	movl   $0x1002ac,0x110560
  1000c5:	02 10 00 
  1000c8:	e8 cb 0c 00 00       	call   100d98 <ioe_init>
  1000cd:	83 ec 0c             	sub    $0xc,%esp
  1000d0:	68 48 02 10 00       	push   $0x100248
  1000d5:	e8 b6 0e 00 00       	call   100f90 <cte_init>
  1000da:	e8 cd 01 00 00       	call   1002ac <hello_intr>
  1000df:	83 c4 10             	add    $0x10,%esp
  1000e2:	eb 91                	jmp    100075 <main+0x65>
  1000e4:	c7 05 60 05 11 00 88 	movl   $0x100188,0x110560
  1000eb:	01 10 00 
  1000ee:	e8 a5 0c 00 00       	call   100d98 <ioe_init>
  1000f3:	e8 90 00 00 00       	call   100188 <keyboard_test>
  1000f8:	e9 78 ff ff ff       	jmp    100075 <main+0x65>
  1000fd:	c7 05 60 05 11 00 94 	movl   $0x100c94,0x110560
  100104:	0c 10 00 
  100107:	83 ec 0c             	sub    $0xc,%esp
  10010a:	68 94 0c 10 00       	push   $0x100c94
  10010f:	e8 f0 0f 00 00       	call   101104 <mpe_init>
  100114:	e8 7b 0b 00 00       	call   100c94 <mp_print>
  100119:	83 c4 10             	add    $0x10,%esp
  10011c:	e9 54 ff ff ff       	jmp    100075 <main+0x65>
  100121:	c7 05 60 05 11 00 64 	movl   $0x100864,0x110560
  100128:	08 10 00 
  10012b:	83 ec 0c             	sub    $0xc,%esp
  10012e:	68 48 07 10 00       	push   $0x100748
  100133:	e8 58 0e 00 00       	call   100f90 <cte_init>
  100138:	59                   	pop    %ecx
  100139:	5b                   	pop    %ebx
  10013a:	68 44 07 10 00       	push   $0x100744
  10013f:	68 00 07 10 00       	push   $0x100700
  100144:	e8 2f 0f 00 00       	call   101078 <vme_init>
  100149:	e8 16 07 00 00       	call   100864 <vm_test>
  10014e:	83 c4 10             	add    $0x10,%esp
  100151:	e9 1f ff ff ff       	jmp    100075 <main+0x65>
  100156:	c7 05 60 05 11 00 f8 	movl   $0x1003f8,0x110560
  10015d:	03 10 00 
  100160:	e8 33 0c 00 00       	call   100d98 <ioe_init>
  100165:	e8 8e 02 00 00       	call   1003f8 <rtc_test>
  10016a:	e9 06 ff ff ff       	jmp    100075 <main+0x65>
  10016f:	c7 05 60 05 11 00 18 	movl   $0x100c18,0x110560
  100176:	0c 10 00 
  100179:	e8 1a 0c 00 00       	call   100d98 <ioe_init>
  10017e:	e8 95 0a 00 00       	call   100c18 <video_test>
  100183:	e9 ed fe ff ff       	jmp    100075 <main+0x65>

00100188 <keyboard_test>:
  100188:	55                   	push   %ebp
  100189:	89 e5                	mov    %esp,%ebp
  10018b:	53                   	push   %ebx
  10018c:	83 ec 20             	sub    $0x20,%esp
  10018f:	68 50 1d 10 00       	push   $0x101d50
  100194:	e8 57 15 00 00       	call   1016f0 <printf>
  100199:	5b                   	pop    %ebx
  10019a:	58                   	pop    %eax
  10019b:	8d 5d f0             	lea    -0x10(%ebp),%ebx
  10019e:	53                   	push   %ebx
  10019f:	6a 01                	push   $0x1
  1001a1:	e8 3a 0c 00 00       	call   100de0 <ioe_read>
  1001a6:	8a 45 f0             	mov    -0x10(%ebp),%al
  1001a9:	a2 65 05 11 00       	mov    %al,0x110565
  1001ae:	58                   	pop    %eax
  1001af:	5a                   	pop    %edx
  1001b0:	53                   	push   %ebx
  1001b1:	6a 07                	push   $0x7
  1001b3:	e8 28 0c 00 00       	call   100de0 <ioe_read>
  1001b8:	8a 45 f0             	mov    -0x10(%ebp),%al
  1001bb:	a2 64 05 11 00       	mov    %al,0x110564
  1001c0:	83 c4 10             	add    $0x10,%esp
  1001c3:	90                   	nop
  1001c4:	80 3d 65 05 11 00 00 	cmpb   $0x0,0x110565
  1001cb:	75 21                	jne    1001ee <keyboard_test+0x66>
  1001cd:	80 3d 64 05 11 00 00 	cmpb   $0x0,0x110564
  1001d4:	74 ee                	je     1001c4 <keyboard_test+0x3c>
  1001d6:	eb 4b                	jmp    100223 <keyboard_test+0x9b>
  1001d8:	0f be d0             	movsbl %al,%edx
  1001db:	51                   	push   %ecx
  1001dc:	0f b6 c0             	movzbl %al,%eax
  1001df:	50                   	push   %eax
  1001e0:	52                   	push   %edx
  1001e1:	68 20 1d 10 00       	push   $0x101d20
  1001e6:	e8 05 15 00 00       	call   1016f0 <printf>
  1001eb:	83 c4 10             	add    $0x10,%esp
  1001ee:	83 ec 08             	sub    $0x8,%esp
  1001f1:	53                   	push   %ebx
  1001f2:	6a 03                	push   $0x3
  1001f4:	e8 e7 0b 00 00       	call   100de0 <ioe_read>
  1001f9:	8a 45 f0             	mov    -0x10(%ebp),%al
  1001fc:	83 c4 10             	add    $0x10,%esp
  1001ff:	3c ff                	cmp    $0xff,%al
  100201:	75 d5                	jne    1001d8 <keyboard_test+0x50>
  100203:	eb c8                	jmp    1001cd <keyboard_test+0x45>
  100205:	8d 76 00             	lea    0x0(%esi),%esi
  100208:	ba 94 1e 10 00       	mov    $0x101e94,%edx
  10020d:	52                   	push   %edx
  10020e:	50                   	push   %eax
  10020f:	ff 34 85 a0 1e 10 00 	pushl  0x101ea0(,%eax,4)
  100216:	68 35 1d 10 00       	push   $0x101d35
  10021b:	e8 d0 14 00 00       	call   1016f0 <printf>
  100220:	83 c4 10             	add    $0x10,%esp
  100223:	83 ec 08             	sub    $0x8,%esp
  100226:	53                   	push   %ebx
  100227:	6a 08                	push   $0x8
  100229:	e8 b2 0b 00 00       	call   100de0 <ioe_read>
  10022e:	8a 55 f0             	mov    -0x10(%ebp),%dl
  100231:	8b 45 f4             	mov    -0xc(%ebp),%eax
  100234:	83 c4 10             	add    $0x10,%esp
  100237:	85 c0                	test   %eax,%eax
  100239:	74 89                	je     1001c4 <keyboard_test+0x3c>
  10023b:	84 d2                	test   %dl,%dl
  10023d:	74 c9                	je     100208 <keyboard_test+0x80>
  10023f:	ba 9b 1e 10 00       	mov    $0x101e9b,%edx
  100244:	eb c7                	jmp    10020d <keyboard_test+0x85>
  100246:	66 90                	xchg   %ax,%ax

00100248 <simple_trap>:
  100248:	55                   	push   %ebp
  100249:	89 e5                	mov    %esp,%ebp
  10024b:	83 ec 08             	sub    $0x8,%esp
  10024e:	8b 45 08             	mov    0x8(%ebp),%eax
  100251:	83 f8 05             	cmp    $0x5,%eax
  100254:	74 0e                	je     100264 <simple_trap+0x1c>
  100256:	83 f8 06             	cmp    $0x6,%eax
  100259:	74 39                	je     100294 <simple_trap+0x4c>
  10025b:	48                   	dec    %eax
  10025c:	74 1e                	je     10027c <simple_trap+0x34>
  10025e:	8b 45 18             	mov    0x18(%ebp),%eax
  100261:	c9                   	leave  
  100262:	c3                   	ret    
  100263:	90                   	nop
  100264:	83 ec 0c             	sub    $0xc,%esp
  100267:	68 ab 18 10 00       	push   $0x1018ab
  10026c:	e8 7f 14 00 00       	call   1016f0 <printf>
  100271:	83 c4 10             	add    $0x10,%esp
  100274:	8b 45 18             	mov    0x18(%ebp),%eax
  100277:	c9                   	leave  
  100278:	c3                   	ret    
  100279:	8d 76 00             	lea    0x0(%esi),%esi
  10027c:	83 ec 0c             	sub    $0xc,%esp
  10027f:	68 ec 1f 10 00       	push   $0x101fec
  100284:	e8 67 14 00 00       	call   1016f0 <printf>
  100289:	83 c4 10             	add    $0x10,%esp
  10028c:	8b 45 18             	mov    0x18(%ebp),%eax
  10028f:	c9                   	leave  
  100290:	c3                   	ret    
  100291:	8d 76 00             	lea    0x0(%esi),%esi
  100294:	83 ec 0c             	sub    $0xc,%esp
  100297:	68 05 23 10 00       	push   $0x102305
  10029c:	e8 4f 14 00 00       	call   1016f0 <printf>
  1002a1:	83 c4 10             	add    $0x10,%esp
  1002a4:	8b 45 18             	mov    0x18(%ebp),%eax
  1002a7:	c9                   	leave  
  1002a8:	c3                   	ret    
  1002a9:	66 90                	xchg   %ax,%ax
  1002ab:	90                   	nop

001002ac <hello_intr>:
  1002ac:	55                   	push   %ebp
  1002ad:	89 e5                	mov    %esp,%ebp
  1002af:	83 ec 24             	sub    $0x24,%esp
  1002b2:	68 ee 1f 10 00       	push   $0x101fee
  1002b7:	e8 34 14 00 00       	call   1016f0 <printf>
  1002bc:	c7 04 24 08 20 10 00 	movl   $0x102008,(%esp)
  1002c3:	e8 28 14 00 00       	call   1016f0 <printf>
  1002c8:	58                   	pop    %eax
  1002c9:	5a                   	pop    %edx
  1002ca:	8d 45 f4             	lea    -0xc(%ebp),%eax
  1002cd:	50                   	push   %eax
  1002ce:	6a 07                	push   $0x7
  1002d0:	e8 0b 0b 00 00       	call   100de0 <ioe_read>
  1002d5:	c7 04 24 01 00 00 00 	movl   $0x1,(%esp)
  1002dc:	e8 6b 0d 00 00       	call   10104c <iset>
  1002e1:	83 c4 10             	add    $0x10,%esp
  1002e4:	c7 45 f4 00 00 00 00 	movl   $0x0,-0xc(%ebp)
  1002eb:	8b 45 f4             	mov    -0xc(%ebp),%eax
  1002ee:	3d 7f 96 98 00       	cmp    $0x98967f,%eax
  1002f3:	7f 11                	jg     100306 <hello_intr+0x5a>
  1002f5:	8b 45 f4             	mov    -0xc(%ebp),%eax
  1002f8:	40                   	inc    %eax
  1002f9:	89 45 f4             	mov    %eax,-0xc(%ebp)
  1002fc:	8b 45 f4             	mov    -0xc(%ebp),%eax
  1002ff:	3d 7f 96 98 00       	cmp    $0x98967f,%eax
  100304:	7e ef                	jle    1002f5 <hello_intr+0x49>
  100306:	e8 3d 0d 00 00       	call   101048 <yield>
  10030b:	eb d7                	jmp    1002e4 <hello_intr+0x38>
  10030d:	66 90                	xchg   %ax,%ax
  10030f:	90                   	nop

00100310 <audio_test>:
  100310:	55                   	push   %ebp
  100311:	89 e5                	mov    %esp,%ebp
  100313:	57                   	push   %edi
  100314:	56                   	push   %esi
  100315:	53                   	push   %ebx
  100316:	83 ec 34             	sub    $0x34,%esp
  100319:	8d 7d dc             	lea    -0x24(%ebp),%edi
  10031c:	57                   	push   %edi
  10031d:	6a 0e                	push   $0xe
  10031f:	e8 bc 0a 00 00       	call   100de0 <ioe_read>
  100324:	83 c4 10             	add    $0x10,%esp
  100327:	80 7d dc 00          	cmpb   $0x0,-0x24(%ebp)
  10032b:	0f 84 a7 00 00 00    	je     1003d8 <audio_test+0xc8>
  100331:	c7 45 dc 40 1f 00 00 	movl   $0x1f40,-0x24(%ebp)
  100338:	c7 45 e0 01 00 00 00 	movl   $0x1,-0x20(%ebp)
  10033f:	c7 45 e4 00 04 00 00 	movl   $0x400,-0x1c(%ebp)
  100346:	83 ec 08             	sub    $0x8,%esp
  100349:	57                   	push   %edi
  10034a:	6a 0f                	push   $0xf
  10034c:	e8 a7 0a 00 00       	call   100df8 <ioe_write>
  100351:	be 1c 03 11 00       	mov    $0x11031c,%esi
  100356:	83 c4 10             	add    $0x10,%esp
  100359:	81 ee 10 25 10 00    	sub    $0x102510,%esi
  10035f:	74 57                	je     1003b8 <audio_test+0xa8>
  100361:	ba 10 25 10 00       	mov    $0x102510,%edx
  100366:	31 db                	xor    %ebx,%ebx
  100368:	31 c9                	xor    %ecx,%ecx
  10036a:	66 90                	xchg   %ax,%ax
  10036c:	89 f0                	mov    %esi,%eax
  10036e:	29 c8                	sub    %ecx,%eax
  100370:	3d 00 10 00 00       	cmp    $0x1000,%eax
  100375:	76 05                	jbe    10037c <audio_test+0x6c>
  100377:	b8 00 10 00 00       	mov    $0x1000,%eax
  10037c:	89 d1                	mov    %edx,%ecx
  10037e:	01 c2                	add    %eax,%edx
  100380:	89 45 d0             	mov    %eax,-0x30(%ebp)
  100383:	89 4d dc             	mov    %ecx,-0x24(%ebp)
  100386:	89 55 e0             	mov    %edx,-0x20(%ebp)
  100389:	89 55 d4             	mov    %edx,-0x2c(%ebp)
  10038c:	83 ec 08             	sub    $0x8,%esp
  10038f:	57                   	push   %edi
  100390:	6a 11                	push   $0x11
  100392:	e8 61 0a 00 00       	call   100df8 <ioe_write>
  100397:	8b 45 d0             	mov    -0x30(%ebp),%eax
  10039a:	01 c3                	add    %eax,%ebx
  10039c:	83 c4 0c             	add    $0xc,%esp
  10039f:	56                   	push   %esi
  1003a0:	53                   	push   %ebx
  1003a1:	68 5c 20 10 00       	push   $0x10205c
  1003a6:	e8 45 13 00 00       	call   1016f0 <printf>
  1003ab:	89 d9                	mov    %ebx,%ecx
  1003ad:	83 c4 10             	add    $0x10,%esp
  1003b0:	39 f3                	cmp    %esi,%ebx
  1003b2:	8b 55 d4             	mov    -0x2c(%ebp),%edx
  1003b5:	72 b5                	jb     10036c <audio_test+0x5c>
  1003b7:	90                   	nop
  1003b8:	83 ec 08             	sub    $0x8,%esp
  1003bb:	57                   	push   %edi
  1003bc:	6a 10                	push   $0x10
  1003be:	e8 1d 0a 00 00       	call   100de0 <ioe_read>
  1003c3:	83 c4 10             	add    $0x10,%esp
  1003c6:	8b 45 dc             	mov    -0x24(%ebp),%eax
  1003c9:	85 c0                	test   %eax,%eax
  1003cb:	7f eb                	jg     1003b8 <audio_test+0xa8>
  1003cd:	8d 65 f4             	lea    -0xc(%ebp),%esp
  1003d0:	5b                   	pop    %ebx
  1003d1:	5e                   	pop    %esi
  1003d2:	5f                   	pop    %edi
  1003d3:	5d                   	pop    %ebp
  1003d4:	c3                   	ret    
  1003d5:	8d 76 00             	lea    0x0(%esi),%esi
  1003d8:	83 ec 08             	sub    $0x8,%esp
  1003db:	68 2c 20 10 00       	push   $0x10202c
  1003e0:	68 38 20 10 00       	push   $0x102038
  1003e5:	e8 06 13 00 00       	call   1016f0 <printf>
  1003ea:	83 c4 10             	add    $0x10,%esp
  1003ed:	8d 65 f4             	lea    -0xc(%ebp),%esp
  1003f0:	5b                   	pop    %ebx
  1003f1:	5e                   	pop    %esi
  1003f2:	5f                   	pop    %edi
  1003f3:	5d                   	pop    %ebp
  1003f4:	c3                   	ret    
  1003f5:	66 90                	xchg   %ax,%ax
  1003f7:	90                   	nop

001003f8 <rtc_test>:
  1003f8:	55                   	push   %ebp
  1003f9:	89 e5                	mov    %esp,%ebp
  1003fb:	57                   	push   %edi
  1003fc:	56                   	push   %esi
  1003fd:	53                   	push   %ebx
  1003fe:	83 ec 3c             	sub    $0x3c,%esp
  100401:	be 01 00 00 00       	mov    $0x1,%esi
  100406:	31 ff                	xor    %edi,%edi
  100408:	8d 5d d0             	lea    -0x30(%ebp),%ebx
  10040b:	90                   	nop
  10040c:	89 75 c4             	mov    %esi,-0x3c(%ebp)
  10040f:	90                   	nop
  100410:	83 ec 08             	sub    $0x8,%esp
  100413:	53                   	push   %ebx
  100414:	6a 06                	push   $0x6
  100416:	e8 c5 09 00 00       	call   100de0 <ioe_read>
  10041b:	6a 00                	push   $0x0
  10041d:	68 40 42 0f 00       	push   $0xf4240
  100422:	ff 75 d4             	pushl  -0x2c(%ebp)
  100425:	ff 75 d0             	pushl  -0x30(%ebp)
  100428:	e8 37 10 00 00       	call   101464 <__udivdi3>
  10042d:	83 c4 20             	add    $0x20,%esp
  100430:	39 f0                	cmp    %esi,%eax
  100432:	19 fa                	sbb    %edi,%edx
  100434:	72 da                	jb     100410 <rtc_test+0x18>
  100436:	83 ec 08             	sub    $0x8,%esp
  100439:	53                   	push   %ebx
  10043a:	6a 05                	push   $0x5
  10043c:	e8 9f 09 00 00       	call   100de0 <ioe_read>
  100441:	83 c4 0c             	add    $0xc,%esp
  100444:	ff 75 e4             	pushl  -0x1c(%ebp)
  100447:	ff 75 e0             	pushl  -0x20(%ebp)
  10044a:	ff 75 dc             	pushl  -0x24(%ebp)
  10044d:	ff 75 d8             	pushl  -0x28(%ebp)
  100450:	ff 75 d4             	pushl  -0x2c(%ebp)
  100453:	ff 75 d0             	pushl  -0x30(%ebp)
  100456:	68 7e 20 10 00       	push   $0x10207e
  10045b:	e8 90 12 00 00       	call   1016f0 <printf>
  100460:	83 c4 20             	add    $0x20,%esp
  100463:	83 fe 01             	cmp    $0x1,%esi
  100466:	75 1c                	jne    100484 <rtc_test+0x8c>
  100468:	83 ec 08             	sub    $0x8,%esp
  10046b:	6a 01                	push   $0x1
  10046d:	68 9c 20 10 00       	push   $0x10209c
  100472:	e8 79 12 00 00       	call   1016f0 <printf>
  100477:	83 c4 10             	add    $0x10,%esp
  10047a:	83 c6 01             	add    $0x1,%esi
  10047d:	83 d7 00             	adc    $0x0,%edi
  100480:	eb 8a                	jmp    10040c <rtc_test+0x14>
  100482:	66 90                	xchg   %ax,%ax
  100484:	83 ec 08             	sub    $0x8,%esp
  100487:	ff 75 c4             	pushl  -0x3c(%ebp)
  10048a:	68 a9 20 10 00       	push   $0x1020a9
  10048f:	e8 5c 12 00 00       	call   1016f0 <printf>
  100494:	83 c4 10             	add    $0x10,%esp
  100497:	eb e1                	jmp    10047a <rtc_test+0x82>
  100499:	66 90                	xchg   %ax,%ax
  10049b:	90                   	nop

0010049c <hello>:
  10049c:	55                   	push   %ebp
  10049d:	89 e5                	mov    %esp,%ebp
  10049f:	56                   	push   %esi
  1004a0:	53                   	push   %ebx
  1004a1:	bb 0a 00 00 00       	mov    $0xa,%ebx
  1004a6:	66 90                	xchg   %ax,%ax
  1004a8:	be ee 1f 10 00       	mov    $0x101fee,%esi
  1004ad:	b8 48 00 00 00       	mov    $0x48,%eax
  1004b2:	66 90                	xchg   %ax,%ax
  1004b4:	83 ec 0c             	sub    $0xc,%esp
  1004b7:	50                   	push   %eax
  1004b8:	e8 f7 07 00 00       	call   100cb4 <putch>
  1004bd:	46                   	inc    %esi
  1004be:	0f be 06             	movsbl (%esi),%eax
  1004c1:	83 c4 10             	add    $0x10,%esp
  1004c4:	84 c0                	test   %al,%al
  1004c6:	75 ec                	jne    1004b4 <hello+0x18>
  1004c8:	4b                   	dec    %ebx
  1004c9:	75 dd                	jne    1004a8 <hello+0xc>
  1004cb:	8d 65 f8             	lea    -0x8(%ebp),%esp
  1004ce:	5b                   	pop    %ebx
  1004cf:	5e                   	pop    %esi
  1004d0:	5d                   	pop    %ebp
  1004d1:	c3                   	ret    
  1004d2:	66 90                	xchg   %ax,%ax

001004d4 <devscan>:
  1004d4:	55                   	push   %ebp
  1004d5:	89 e5                	mov    %esp,%ebp
  1004d7:	57                   	push   %edi
  1004d8:	56                   	push   %esi
  1004d9:	53                   	push   %ebx
  1004da:	83 ec 40             	sub    $0x40,%esp
  1004dd:	ff 35 34 03 11 00    	pushl  0x110334
  1004e3:	ff 35 30 03 11 00    	pushl  0x110330
  1004e9:	68 b7 20 10 00       	push   $0x1020b7
  1004ee:	e8 fd 11 00 00       	call   1016f0 <printf>
  1004f3:	c7 04 24 cc 20 10 00 	movl   $0x1020cc,(%esp)
  1004fa:	e8 f1 11 00 00       	call   1016f0 <printf>
  1004ff:	5f                   	pop    %edi
  100500:	58                   	pop    %eax
  100501:	8d 5d d8             	lea    -0x28(%ebp),%ebx
  100504:	53                   	push   %ebx
  100505:	6a 06                	push   $0x6
  100507:	e8 d4 08 00 00       	call   100de0 <ioe_read>
  10050c:	6a 00                	push   $0x0
  10050e:	68 e8 03 00 00       	push   $0x3e8
  100513:	ff 75 dc             	pushl  -0x24(%ebp)
  100516:	ff 75 d8             	pushl  -0x28(%ebp)
  100519:	e8 46 0f 00 00       	call   101464 <__udivdi3>
  10051e:	89 c6                	mov    %eax,%esi
  100520:	c7 45 d4 00 00 00 00 	movl   $0x0,-0x2c(%ebp)
  100527:	8b 45 d4             	mov    -0x2c(%ebp),%eax
  10052a:	83 c4 20             	add    $0x20,%esp
  10052d:	3d 7f 96 98 00       	cmp    $0x98967f,%eax
  100532:	7f 11                	jg     100545 <devscan+0x71>
  100534:	8b 45 d4             	mov    -0x2c(%ebp),%eax
  100537:	40                   	inc    %eax
  100538:	89 45 d4             	mov    %eax,-0x2c(%ebp)
  10053b:	8b 45 d4             	mov    -0x2c(%ebp),%eax
  10053e:	3d 7f 96 98 00       	cmp    $0x98967f,%eax
  100543:	7e ef                	jle    100534 <devscan+0x60>
  100545:	83 ec 08             	sub    $0x8,%esp
  100548:	53                   	push   %ebx
  100549:	6a 06                	push   $0x6
  10054b:	e8 90 08 00 00       	call   100de0 <ioe_read>
  100550:	6a 00                	push   $0x0
  100552:	68 e8 03 00 00       	push   $0x3e8
  100557:	ff 75 dc             	pushl  -0x24(%ebp)
  10055a:	ff 75 d8             	pushl  -0x28(%ebp)
  10055d:	e8 02 0f 00 00       	call   101464 <__udivdi3>
  100562:	83 c4 18             	add    $0x18,%esp
  100565:	29 f0                	sub    %esi,%eax
  100567:	50                   	push   %eax
  100568:	68 e8 20 10 00       	push   $0x1020e8
  10056d:	e8 7e 11 00 00       	call   1016f0 <printf>
  100572:	59                   	pop    %ecx
  100573:	5e                   	pop    %esi
  100574:	53                   	push   %ebx
  100575:	6a 09                	push   $0x9
  100577:	e8 64 08 00 00       	call   100de0 <ioe_read>
  10057c:	8b 75 dc             	mov    -0x24(%ebp),%esi
  10057f:	8b 45 e0             	mov    -0x20(%ebp),%eax
  100582:	89 45 c4             	mov    %eax,-0x3c(%ebp)
  100585:	83 c4 0c             	add    $0xc,%esp
  100588:	50                   	push   %eax
  100589:	56                   	push   %esi
  10058a:	68 06 21 10 00       	push   $0x102106
  10058f:	e8 5c 11 00 00       	call   1016f0 <printf>
  100594:	83 c4 10             	add    $0x10,%esp
  100597:	bf 50 08 11 00       	mov    $0x110850,%edi
  10059c:	e8 df 0e 00 00       	call   101480 <rand>
  1005a1:	88 07                	mov    %al,(%edi)
  1005a3:	47                   	inc    %edi
  1005a4:	81 ff 80 07 19 00    	cmp    $0x190780,%edi
  1005aa:	75 f0                	jne    10059c <devscan+0xc8>
  1005ac:	c7 05 80 07 11 00 01 	movl   $0xffff0001,0x110780
  1005b3:	00 ff ff 
  1005b6:	66 c7 05 84 07 11 00 	movw   $0xffff,0x110784
  1005bd:	ff ff 
  1005bf:	89 f0                	mov    %esi,%eax
  1005c1:	85 f6                	test   %esi,%esi
  1005c3:	79 03                	jns    1005c8 <devscan+0xf4>
  1005c5:	8d 46 03             	lea    0x3(%esi),%eax
  1005c8:	c1 f8 02             	sar    $0x2,%eax
  1005cb:	66 a3 86 07 11 00    	mov    %ax,0x110786
  1005d1:	66 c7 05 88 07 11 00 	movw   $0x0,0x110788
  1005d8:	00 00 
  1005da:	89 f0                	mov    %esi,%eax
  1005dc:	c1 e8 1f             	shr    $0x1f,%eax
  1005df:	01 c6                	add    %eax,%esi
  1005e1:	d1 fe                	sar    %esi
  1005e3:	66 89 35 8a 07 11 00 	mov    %si,0x11078a
  1005ea:	8b 7d c4             	mov    -0x3c(%ebp),%edi
  1005ed:	83 ef 64             	sub    $0x64,%edi
  1005f0:	66 89 3d 8c 07 11 00 	mov    %di,0x11078c
  1005f7:	c7 05 8e 07 11 00 ff 	movl   $0xffffffff,0x11078e
  1005fe:	ff ff ff 
  100601:	c7 05 92 07 11 00 25 	movl   $0xa0025,0x110792
  100608:	00 0a 00 
  10060b:	c7 05 96 07 11 00 d0 	movl   $0xd0,0x110796
  100612:	00 00 00 
  100615:	c7 45 d8 00 00 00 00 	movl   $0x0,-0x28(%ebp)
  10061c:	c7 45 dc 80 07 11 00 	movl   $0x110780,-0x24(%ebp)
  100623:	c7 45 e0 00 00 08 00 	movl   $0x80000,-0x20(%ebp)
  10062a:	83 ec 08             	sub    $0x8,%esp
  10062d:	53                   	push   %ebx
  10062e:	6a 0c                	push   $0xc
  100630:	e8 c3 07 00 00       	call   100df8 <ioe_write>
  100635:	c7 45 d8 00 00 00 00 	movl   $0x0,-0x28(%ebp)
  10063c:	5a                   	pop    %edx
  10063d:	59                   	pop    %ecx
  10063e:	53                   	push   %ebx
  10063f:	6a 0d                	push   $0xd
  100641:	e8 b2 07 00 00       	call   100df8 <ioe_write>
  100646:	5e                   	pop    %esi
  100647:	5f                   	pop    %edi
  100648:	53                   	push   %ebx
  100649:	6a 12                	push   $0x12
  10064b:	e8 90 07 00 00       	call   100de0 <ioe_read>
  100650:	8b 75 dc             	mov    -0x24(%ebp),%esi
  100653:	83 c4 0c             	add    $0xc,%esp
  100656:	56                   	push   %esi
  100657:	ff 75 e0             	pushl  -0x20(%ebp)
  10065a:	68 34 21 10 00       	push   $0x102134
  10065f:	e8 8c 10 00 00       	call   1016f0 <printf>
  100664:	c6 45 d8 00          	movb   $0x0,-0x28(%ebp)
  100668:	c7 45 dc 80 05 11 00 	movl   $0x110580,-0x24(%ebp)
  10066f:	c7 45 e0 00 00 00 00 	movl   $0x0,-0x20(%ebp)
  100676:	b8 00 02 00 00       	mov    $0x200,%eax
  10067b:	99                   	cltd   
  10067c:	f7 fe                	idiv   %esi
  10067e:	89 45 e4             	mov    %eax,-0x1c(%ebp)
  100681:	58                   	pop    %eax
  100682:	5a                   	pop    %edx
  100683:	53                   	push   %ebx
  100684:	6a 14                	push   $0x14
  100686:	e8 6d 07 00 00       	call   100df8 <ioe_write>
  10068b:	83 c4 0c             	add    $0xc,%esp
  10068e:	0f b6 05 81 05 11 00 	movzbl 0x110581,%eax
  100695:	50                   	push   %eax
  100696:	0f b6 05 80 05 11 00 	movzbl 0x110580,%eax
  10069d:	50                   	push   %eax
  10069e:	68 1c 21 10 00       	push   $0x10211c
  1006a3:	e8 48 10 00 00       	call   1016f0 <printf>
  1006a8:	83 c4 10             	add    $0x10,%esp
  1006ab:	bb 02 00 00 00       	mov    $0x2,%ebx
  1006b0:	50                   	push   %eax
  1006b1:	0f b6 83 81 05 11 00 	movzbl 0x110581(%ebx),%eax
  1006b8:	50                   	push   %eax
  1006b9:	0f b6 83 80 05 11 00 	movzbl 0x110580(%ebx),%eax
  1006c0:	50                   	push   %eax
  1006c1:	68 1c 21 10 00       	push   $0x10211c
  1006c6:	e8 25 10 00 00       	call   1016f0 <printf>
  1006cb:	83 c3 02             	add    $0x2,%ebx
  1006ce:	83 c4 10             	add    $0x10,%esp
  1006d1:	f6 c3 1f             	test   $0x1f,%bl
  1006d4:	75 10                	jne    1006e6 <devscan+0x212>
  1006d6:	83 ec 0c             	sub    $0xc,%esp
  1006d9:	68 2f 21 10 00       	push   $0x10212f
  1006de:	e8 0d 10 00 00       	call   1016f0 <printf>
  1006e3:	83 c4 10             	add    $0x10,%esp
  1006e6:	81 fb 00 02 00 00    	cmp    $0x200,%ebx
  1006ec:	75 c2                	jne    1006b0 <devscan+0x1dc>
  1006ee:	83 ec 0c             	sub    $0xc,%esp
  1006f1:	68 26 21 10 00       	push   $0x102126
  1006f6:	e8 f5 0f 00 00       	call   1016f0 <printf>
  1006fb:	83 c4 10             	add    $0x10,%esp
  1006fe:	eb fe                	jmp    1006fe <devscan+0x22a>

00100700 <simple_pgalloc>:
  100700:	55                   	push   %ebp
  100701:	89 e5                	mov    %esp,%ebp
  100703:	56                   	push   %esi
  100704:	53                   	push   %ebx
  100705:	8b 5d 08             	mov    0x8(%ebp),%ebx
  100708:	8b 35 80 17 19 00    	mov    0x191780,%esi
  10070e:	85 f6                	test   %esi,%esi
  100710:	75 06                	jne    100718 <simple_pgalloc+0x18>
  100712:	8b 35 30 03 11 00    	mov    0x110330,%esi
  100718:	89 f0                	mov    %esi,%eax
  10071a:	31 d2                	xor    %edx,%edx
  10071c:	f7 f3                	div    %ebx
  10071e:	85 d2                	test   %edx,%edx
  100720:	74 13                	je     100735 <simple_pgalloc+0x35>
  100722:	8d 4e 01             	lea    0x1(%esi),%ecx
  100725:	8d 76 00             	lea    0x0(%esi),%esi
  100728:	89 c8                	mov    %ecx,%eax
  10072a:	31 d2                	xor    %edx,%edx
  10072c:	f7 f3                	div    %ebx
  10072e:	89 ce                	mov    %ecx,%esi
  100730:	41                   	inc    %ecx
  100731:	85 d2                	test   %edx,%edx
  100733:	75 f3                	jne    100728 <simple_pgalloc+0x28>
  100735:	01 f3                	add    %esi,%ebx
  100737:	89 1d 80 17 19 00    	mov    %ebx,0x191780
  10073d:	89 f0                	mov    %esi,%eax
  10073f:	5b                   	pop    %ebx
  100740:	5e                   	pop    %esi
  100741:	5d                   	pop    %ebp
  100742:	c3                   	ret    
  100743:	90                   	nop

00100744 <simple_pgfree>:
  100744:	c3                   	ret    
  100745:	66 90                	xchg   %ax,%ax
  100747:	90                   	nop

00100748 <vm_handler>:
  100748:	55                   	push   %ebp
  100749:	89 e5                	mov    %esp,%ebp
  10074b:	83 ec 18             	sub    $0x18,%esp
  10074e:	8b 45 08             	mov    0x8(%ebp),%eax
  100751:	83 f8 03             	cmp    $0x3,%eax
  100754:	0f 84 9e 00 00 00    	je     1007f8 <vm_handler+0xb0>
  10075a:	77 74                	ja     1007d0 <vm_handler+0x88>
  10075c:	83 f8 01             	cmp    $0x1,%eax
  10075f:	74 4e                	je     1007af <vm_handler+0x67>
  100761:	83 f8 02             	cmp    $0x2,%eax
  100764:	0f 85 da 00 00 00    	jne    100844 <vm_handler+0xfc>
  10076a:	83 ec 0c             	sub    $0xc,%esp
  10076d:	6a 01                	push   $0x1
  10076f:	e8 d8 08 00 00       	call   10104c <iset>
  100774:	c7 45 f4 00 00 00 00 	movl   $0x0,-0xc(%ebp)
  10077b:	8b 45 f4             	mov    -0xc(%ebp),%eax
  10077e:	83 c4 10             	add    $0x10,%esp
  100781:	3d 3f 42 0f 00       	cmp    $0xf423f,%eax
  100786:	7f 11                	jg     100799 <vm_handler+0x51>
  100788:	8b 45 f4             	mov    -0xc(%ebp),%eax
  10078b:	40                   	inc    %eax
  10078c:	89 45 f4             	mov    %eax,-0xc(%ebp)
  10078f:	8b 45 f4             	mov    -0xc(%ebp),%eax
  100792:	3d 3f 42 0f 00       	cmp    $0xf423f,%eax
  100797:	7e ef                	jle    100788 <vm_handler+0x40>
  100799:	83 ec 08             	sub    $0x8,%esp
  10079c:	8b 45 18             	mov    0x18(%ebp),%eax
  10079f:	ff 70 0c             	pushl  0xc(%eax)
  1007a2:	68 ac 21 10 00       	push   $0x1021ac
  1007a7:	e8 44 0f 00 00       	call   1016f0 <printf>
  1007ac:	83 c4 10             	add    $0x10,%esp
  1007af:	a1 2c 03 11 00       	mov    0x11032c,%eax
  1007b4:	85 c0                	test   %eax,%eax
  1007b6:	74 12                	je     1007ca <vm_handler+0x82>
  1007b8:	c7 05 2c 03 11 00 00 	movl   $0x0,0x11032c
  1007bf:	00 00 00 
  1007c2:	a1 94 17 19 00       	mov    0x191794,%eax
  1007c7:	89 45 18             	mov    %eax,0x18(%ebp)
  1007ca:	8b 45 18             	mov    0x18(%ebp),%eax
  1007cd:	c9                   	leave  
  1007ce:	c3                   	ret    
  1007cf:	90                   	nop
  1007d0:	83 e8 05             	sub    $0x5,%eax
  1007d3:	83 f8 01             	cmp    $0x1,%eax
  1007d6:	77 6c                	ja     100844 <vm_handler+0xfc>
  1007d8:	83 ec 08             	sub    $0x8,%esp
  1007db:	ff 75 14             	pushl  0x14(%ebp)
  1007de:	68 82 21 10 00       	push   $0x102182
  1007e3:	e8 08 0f 00 00       	call   1016f0 <printf>
  1007e8:	83 c4 10             	add    $0x10,%esp
  1007eb:	a1 2c 03 11 00       	mov    0x11032c,%eax
  1007f0:	85 c0                	test   %eax,%eax
  1007f2:	74 d6                	je     1007ca <vm_handler+0x82>
  1007f4:	eb c2                	jmp    1007b8 <vm_handler+0x70>
  1007f6:	66 90                	xchg   %ax,%ax
  1007f8:	8b 45 0c             	mov    0xc(%ebp),%eax
  1007fb:	a8 02                	test   $0x2,%al
  1007fd:	75 35                	jne    100834 <vm_handler+0xec>
  1007ff:	ba 30 21 10 00       	mov    $0x102130,%edx
  100804:	a8 01                	test   $0x1,%al
  100806:	75 35                	jne    10083d <vm_handler+0xf5>
  100808:	b8 30 21 10 00       	mov    $0x102130,%eax
  10080d:	83 ec 0c             	sub    $0xc,%esp
  100810:	52                   	push   %edx
  100811:	50                   	push   %eax
  100812:	68 30 21 10 00       	push   $0x102130
  100817:	ff 75 10             	pushl  0x10(%ebp)
  10081a:	68 9d 21 10 00       	push   $0x10219d
  10081f:	e8 cc 0e 00 00       	call   1016f0 <printf>
  100824:	83 c4 20             	add    $0x20,%esp
  100827:	a1 2c 03 11 00       	mov    0x11032c,%eax
  10082c:	85 c0                	test   %eax,%eax
  10082e:	74 9a                	je     1007ca <vm_handler+0x82>
  100830:	eb 86                	jmp    1007b8 <vm_handler+0x70>
  100832:	66 90                	xchg   %ax,%ax
  100834:	ba 69 21 10 00       	mov    $0x102169,%edx
  100839:	a8 01                	test   $0x1,%al
  10083b:	74 cb                	je     100808 <vm_handler+0xc0>
  10083d:	b8 76 21 10 00       	mov    $0x102176,%eax
  100842:	eb c9                	jmp    10080d <vm_handler+0xc5>
  100844:	52                   	push   %edx
  100845:	6a 28                	push   $0x28
  100847:	68 cc 21 10 00       	push   $0x1021cc
  10084c:	68 b0 21 10 00       	push   $0x1021b0
  100851:	e8 9a 0e 00 00       	call   1016f0 <printf>
  100856:	c7 04 24 01 00 00 00 	movl   $0x1,(%esp)
  10085d:	e8 62 04 00 00       	call   100cc4 <halt>
  100862:	66 90                	xchg   %ax,%ax

00100864 <vm_test>:
  100864:	55                   	push   %ebp
  100865:	89 e5                	mov    %esp,%ebp
  100867:	56                   	push   %esi
  100868:	53                   	push   %ebx
  100869:	52                   	push   %edx
  10086a:	6a 03                	push   $0x3
  10086c:	68 13 22 10 00       	push   $0x102213
  100871:	68 13 22 10 00       	push   $0x102213
  100876:	e8 f5 0e 00 00       	call   101770 <strncmp>
  10087b:	83 c4 10             	add    $0x10,%esp
  10087e:	85 c0                	test   %eax,%eax
  100880:	74 1d                	je     10089f <vm_test+0x3b>
  100882:	83 ec 08             	sub    $0x8,%esp
  100885:	68 17 22 10 00       	push   $0x102217
  10088a:	68 13 22 10 00       	push   $0x102213
  10088f:	e8 a8 0e 00 00       	call   10173c <strcmp>
  100894:	83 c4 10             	add    $0x10,%esp
  100897:	85 c0                	test   %eax,%eax
  100899:	0f 85 d1 00 00 00    	jne    100970 <vm_test+0x10c>
  10089f:	83 ec 0c             	sub    $0xc,%esp
  1008a2:	68 84 17 19 00       	push   $0x191784
  1008a7:	e8 08 08 00 00       	call   1010b4 <protect>
  1008ac:	83 c4 0c             	add    $0xc,%esp
  1008af:	ff 35 8c 17 19 00    	pushl  0x19178c
  1008b5:	ff 35 88 17 19 00    	pushl  0x191788
  1008bb:	68 3c 22 10 00       	push   $0x10223c
  1008c0:	e8 2b 0e 00 00       	call   1016f0 <printf>
  1008c5:	a1 88 17 19 00       	mov    0x191788,%eax
  1008ca:	8b 35 8c 17 19 00    	mov    0x19178c,%esi
  1008d0:	29 c6                	sub    %eax,%esi
  1008d2:	d1 ee                	shr    %esi
  1008d4:	01 c6                	add    %eax,%esi
  1008d6:	8b 0d 84 17 19 00    	mov    0x191784,%ecx
  1008dc:	8b 1d 80 17 19 00    	mov    0x191780,%ebx
  1008e2:	83 c4 10             	add    $0x10,%esp
  1008e5:	85 db                	test   %ebx,%ebx
  1008e7:	75 14                	jne    1008fd <vm_test+0x99>
  1008e9:	8b 1d 30 03 11 00    	mov    0x110330,%ebx
  1008ef:	89 d8                	mov    %ebx,%eax
  1008f1:	31 d2                	xor    %edx,%edx
  1008f3:	f7 f1                	div    %ecx
  1008f5:	85 d2                	test   %edx,%edx
  1008f7:	74 0e                	je     100907 <vm_test+0xa3>
  1008f9:	8d 76 00             	lea    0x0(%esi),%esi
  1008fc:	43                   	inc    %ebx
  1008fd:	89 d8                	mov    %ebx,%eax
  1008ff:	31 d2                	xor    %edx,%edx
  100901:	f7 f1                	div    %ecx
  100903:	85 d2                	test   %edx,%edx
  100905:	75 f5                	jne    1008fc <vm_test+0x98>
  100907:	01 d9                	add    %ebx,%ecx
  100909:	89 0d 80 17 19 00    	mov    %ecx,0x191780
  10090f:	50                   	push   %eax
  100910:	6a 0f                	push   $0xf
  100912:	68 1c 03 11 00       	push   $0x11031c
  100917:	53                   	push   %ebx
  100918:	e8 87 0e 00 00       	call   1017a4 <memcpy>
  10091d:	6a 03                	push   $0x3
  10091f:	53                   	push   %ebx
  100920:	56                   	push   %esi
  100921:	68 84 17 19 00       	push   $0x191784
  100926:	e8 d1 07 00 00       	call   1010fc <map>
  10092b:	83 c4 1c             	add    $0x1c,%esp
  10092e:	53                   	push   %ebx
  10092f:	56                   	push   %esi
  100930:	68 60 22 10 00       	push   $0x102260
  100935:	e8 b6 0d 00 00       	call   1016f0 <printf>
  10093a:	b8 80 07 19 00       	mov    $0x190780,%eax
  10093f:	ba 80 17 19 00       	mov    $0x191780,%edx
  100944:	56                   	push   %esi
  100945:	52                   	push   %edx
  100946:	50                   	push   %eax
  100947:	68 84 17 19 00       	push   $0x191784
  10094c:	e8 af 07 00 00       	call   101100 <ucontext>
  100951:	a3 94 17 19 00       	mov    %eax,0x191794
  100956:	83 c4 14             	add    $0x14,%esp
  100959:	6a 01                	push   $0x1
  10095b:	e8 ec 06 00 00       	call   10104c <iset>
  100960:	83 c4 10             	add    $0x10,%esp
  100963:	8d 65 f8             	lea    -0x8(%ebp),%esp
  100966:	5b                   	pop    %ebx
  100967:	5e                   	pop    %esi
  100968:	5d                   	pop    %ebp
  100969:	e9 da 06 00 00       	jmp    101048 <yield>
  10096e:	66 90                	xchg   %ax,%ax
  100970:	83 ec 0c             	sub    $0xc,%esp
  100973:	68 1e 22 10 00       	push   $0x10221e
  100978:	e8 73 0d 00 00       	call   1016f0 <printf>
  10097d:	83 c4 10             	add    $0x10,%esp
  100980:	8d 65 f8             	lea    -0x8(%ebp),%esp
  100983:	5b                   	pop    %ebx
  100984:	5e                   	pop    %esi
  100985:	5d                   	pop    %ebp
  100986:	c3                   	ret    
  100987:	90                   	nop

00100988 <redraw>:
  100988:	55                   	push   %ebp
  100989:	89 e5                	mov    %esp,%ebp
  10098b:	57                   	push   %edi
  10098c:	56                   	push   %esi
  10098d:	53                   	push   %ebx
  10098e:	83 ec 44             	sub    $0x44,%esp
  100991:	8d 45 d0             	lea    -0x30(%ebp),%eax
  100994:	50                   	push   %eax
  100995:	6a 09                	push   $0x9
  100997:	e8 44 04 00 00       	call   100de0 <ioe_read>
  10099c:	8b 75 d4             	mov    -0x2c(%ebp),%esi
  10099f:	83 c4 10             	add    $0x10,%esp
  1009a2:	85 f6                	test   %esi,%esi
  1009a4:	79 03                	jns    1009a9 <redraw+0x21>
  1009a6:	83 c6 1f             	add    $0x1f,%esi
  1009a9:	c1 fe 05             	sar    $0x5,%esi
  1009ac:	83 ec 08             	sub    $0x8,%esp
  1009af:	8d 45 d0             	lea    -0x30(%ebp),%eax
  1009b2:	50                   	push   %eax
  1009b3:	6a 09                	push   $0x9
  1009b5:	e8 26 04 00 00       	call   100de0 <ioe_read>
  1009ba:	8b 45 d8             	mov    -0x28(%ebp),%eax
  1009bd:	83 c4 10             	add    $0x10,%esp
  1009c0:	85 c0                	test   %eax,%eax
  1009c2:	79 03                	jns    1009c7 <redraw+0x3f>
  1009c4:	83 c0 1f             	add    $0x1f,%eax
  1009c7:	c1 f8 05             	sar    $0x5,%eax
  1009ca:	89 45 b8             	mov    %eax,-0x48(%ebp)
  1009cd:	0f af c6             	imul   %esi,%eax
  1009d0:	89 c3                	mov    %eax,%ebx
  1009d2:	3d 00 04 00 00       	cmp    $0x400,%eax
  1009d7:	0f 87 c4 00 00 00    	ja     100aa1 <redraw+0x119>
  1009dd:	c7 45 c0 20 38 19 00 	movl   $0x193820,-0x40(%ebp)
  1009e4:	c7 45 bc 00 00 00 00 	movl   $0x0,-0x44(%ebp)
  1009eb:	89 f1                	mov    %esi,%ecx
  1009ed:	8b 45 c0             	mov    -0x40(%ebp),%eax
  1009f0:	8d 78 80             	lea    -0x80(%eax),%edi
  1009f3:	31 f6                	xor    %esi,%esi
  1009f5:	8d 76 00             	lea    0x0(%esi),%esi
  1009f8:	85 db                	test   %ebx,%ebx
  1009fa:	74 10                	je     100a0c <redraw+0x84>
  1009fc:	8b 17                	mov    (%edi),%edx
  1009fe:	31 c0                	xor    %eax,%eax
  100a00:	89 14 85 a0 17 19 00 	mov    %edx,0x1917a0(,%eax,4)
  100a07:	40                   	inc    %eax
  100a08:	39 c3                	cmp    %eax,%ebx
  100a0a:	75 f4                	jne    100a00 <redraw+0x78>
  100a0c:	89 75 d0             	mov    %esi,-0x30(%ebp)
  100a0f:	8b 45 bc             	mov    -0x44(%ebp),%eax
  100a12:	89 45 d4             	mov    %eax,-0x2c(%ebp)
  100a15:	c7 45 d8 a0 17 19 00 	movl   $0x1917a0,-0x28(%ebp)
  100a1c:	89 4d dc             	mov    %ecx,-0x24(%ebp)
  100a1f:	89 4d c4             	mov    %ecx,-0x3c(%ebp)
  100a22:	8b 45 b8             	mov    -0x48(%ebp),%eax
  100a25:	89 45 e0             	mov    %eax,-0x20(%ebp)
  100a28:	c6 45 e4 00          	movb   $0x0,-0x1c(%ebp)
  100a2c:	83 ec 08             	sub    $0x8,%esp
  100a2f:	8d 45 d0             	lea    -0x30(%ebp),%eax
  100a32:	50                   	push   %eax
  100a33:	6a 0b                	push   $0xb
  100a35:	e8 be 03 00 00       	call   100df8 <ioe_write>
  100a3a:	8b 4d c4             	mov    -0x3c(%ebp),%ecx
  100a3d:	01 ce                	add    %ecx,%esi
  100a3f:	83 c7 04             	add    $0x4,%edi
  100a42:	83 c4 10             	add    $0x10,%esp
  100a45:	3b 7d c0             	cmp    -0x40(%ebp),%edi
  100a48:	75 ae                	jne    1009f8 <redraw+0x70>
  100a4a:	8b 75 b8             	mov    -0x48(%ebp),%esi
  100a4d:	01 75 bc             	add    %esi,-0x44(%ebp)
  100a50:	8d 87 80 00 00 00    	lea    0x80(%edi),%eax
  100a56:	89 45 c0             	mov    %eax,-0x40(%ebp)
  100a59:	81 ff a0 47 19 00    	cmp    $0x1947a0,%edi
  100a5f:	75 8c                	jne    1009ed <redraw+0x65>
  100a61:	c7 45 d0 00 00 00 00 	movl   $0x0,-0x30(%ebp)
  100a68:	c7 45 d4 00 00 00 00 	movl   $0x0,-0x2c(%ebp)
  100a6f:	c7 45 d8 00 00 00 00 	movl   $0x0,-0x28(%ebp)
  100a76:	c7 45 dc 00 00 00 00 	movl   $0x0,-0x24(%ebp)
  100a7d:	c7 45 e0 00 00 00 00 	movl   $0x0,-0x20(%ebp)
  100a84:	c6 45 e4 01          	movb   $0x1,-0x1c(%ebp)
  100a88:	83 ec 08             	sub    $0x8,%esp
  100a8b:	8d 45 d0             	lea    -0x30(%ebp),%eax
  100a8e:	50                   	push   %eax
  100a8f:	6a 0b                	push   $0xb
  100a91:	e8 62 03 00 00       	call   100df8 <ioe_write>
  100a96:	83 c4 10             	add    $0x10,%esp
  100a99:	8d 65 f4             	lea    -0xc(%ebp),%esp
  100a9c:	5b                   	pop    %ebx
  100a9d:	5e                   	pop    %esi
  100a9e:	5f                   	pop    %edi
  100a9f:	5d                   	pop    %ebp
  100aa0:	c3                   	ret    
  100aa1:	50                   	push   %eax
  100aa2:	6a 16                	push   $0x16
  100aa4:	68 8c 22 10 00       	push   $0x10228c
  100aa9:	68 b0 21 10 00       	push   $0x1021b0
  100aae:	e8 3d 0c 00 00       	call   1016f0 <printf>
  100ab3:	c7 04 24 01 00 00 00 	movl   $0x1,(%esp)
  100aba:	e8 05 02 00 00       	call   100cc4 <halt>
  100abf:	90                   	nop

00100ac0 <update>:
  100ac0:	55                   	push   %ebp
  100ac1:	89 e5                	mov    %esp,%ebp
  100ac3:	57                   	push   %edi
  100ac4:	56                   	push   %esi
  100ac5:	53                   	push   %ebx
  100ac6:	83 ec 10             	sub    $0x10,%esp
  100ac9:	a1 98 17 19 00       	mov    0x191798,%eax
  100ace:	40                   	inc    %eax
  100acf:	89 45 e8             	mov    %eax,-0x18(%ebp)
  100ad2:	a3 98 17 19 00       	mov    %eax,0x191798
  100ad7:	ba 20 28 19 00       	mov    $0x192820,%edx
  100adc:	b9 20 38 19 00       	mov    $0x193820,%ecx
  100ae1:	8d 76 00             	lea    0x0(%esi),%esi
  100ae4:	8d 42 80             	lea    -0x80(%edx),%eax
  100ae7:	90                   	nop
  100ae8:	c7 00 00 00 00 00    	movl   $0x0,(%eax)
  100aee:	83 c0 04             	add    $0x4,%eax
  100af1:	39 d0                	cmp    %edx,%eax
  100af3:	75 f3                	jne    100ae8 <update+0x28>
  100af5:	8d 90 80 00 00 00    	lea    0x80(%eax),%edx
  100afb:	39 d1                	cmp    %edx,%ecx
  100afd:	75 e5                	jne    100ae4 <update+0x24>
  100aff:	8b 4d e8             	mov    -0x18(%ebp),%ecx
  100b02:	88 c8                	mov    %cl,%al
  100b04:	8d 04 40             	lea    (%eax,%eax,2),%eax
  100b07:	d1 e0                	shl    %eax
  100b09:	0f b6 c0             	movzbl %al,%eax
  100b0c:	c1 e0 10             	shl    $0x10,%eax
  100b0f:	89 ce                	mov    %ecx,%esi
  100b11:	8d 14 f5 00 00 00 00 	lea    0x0(,%esi,8),%edx
  100b18:	29 ca                	sub    %ecx,%edx
  100b1a:	0f b6 d2             	movzbl %dl,%edx
  100b1d:	c1 e2 08             	shl    $0x8,%edx
  100b20:	09 d0                	or     %edx,%eax
  100b22:	0f b6 d1             	movzbl %cl,%edx
  100b25:	09 d0                	or     %edx,%eax
  100b27:	a3 a0 37 19 00       	mov    %eax,0x1937a0
  100b2c:	c7 05 a0 27 19 00 01 	movl   $0x1,0x1927a0
  100b33:	00 00 00 
  100b36:	bb 01 00 00 00       	mov    $0x1,%ebx
  100b3b:	31 d2                	xor    %edx,%edx
  100b3d:	c7 45 f0 01 00 00 00 	movl   $0x1,-0x10(%ebp)
  100b44:	31 c0                	xor    %eax,%eax
  100b46:	c7 45 ec 00 00 00 00 	movl   $0x0,-0x14(%ebp)
  100b4d:	31 f6                	xor    %esi,%esi
  100b4f:	90                   	nop
  100b50:	b9 04 00 00 00       	mov    $0x4,%ecx
  100b55:	01 f2                	add    %esi,%edx
  100b57:	83 fa 1f             	cmp    $0x1f,%edx
  100b5a:	77 19                	ja     100b75 <update+0xb5>
  100b5c:	03 5d ec             	add    -0x14(%ebp),%ebx
  100b5f:	83 fb 1f             	cmp    $0x1f,%ebx
  100b62:	77 11                	ja     100b75 <update+0xb5>
  100b64:	89 d7                	mov    %edx,%edi
  100b66:	c1 e7 05             	shl    $0x5,%edi
  100b69:	01 df                	add    %ebx,%edi
  100b6b:	83 3c bd a0 27 19 00 	cmpl   $0x0,0x1927a0(,%edi,4)
  100b72:	00 
  100b73:	74 41                	je     100bb6 <update+0xf6>
  100b75:	40                   	inc    %eax
  100b76:	83 e0 03             	and    $0x3,%eax
  100b79:	49                   	dec    %ecx
  100b7a:	74 1c                	je     100b98 <update+0xd8>
  100b7c:	8b 14 85 f4 22 10 00 	mov    0x1022f4(,%eax,4),%edx
  100b83:	8b 1c 85 e4 22 10 00 	mov    0x1022e4(,%eax,4),%ebx
  100b8a:	01 f2                	add    %esi,%edx
  100b8c:	83 fa 1f             	cmp    $0x1f,%edx
  100b8f:	76 cb                	jbe    100b5c <update+0x9c>
  100b91:	40                   	inc    %eax
  100b92:	83 e0 03             	and    $0x3,%eax
  100b95:	49                   	dec    %ecx
  100b96:	75 e4                	jne    100b7c <update+0xbc>
  100b98:	ff 45 f0             	incl   -0x10(%ebp)
  100b9b:	8b 7d f0             	mov    -0x10(%ebp),%edi
  100b9e:	81 ff 00 04 00 00    	cmp    $0x400,%edi
  100ba4:	74 68                	je     100c0e <update+0x14e>
  100ba6:	8b 14 85 f4 22 10 00 	mov    0x1022f4(,%eax,4),%edx
  100bad:	8b 1c 85 e4 22 10 00 	mov    0x1022e4(,%eax,4),%ebx
  100bb4:	eb 9a                	jmp    100b50 <update+0x90>
  100bb6:	89 55 e4             	mov    %edx,-0x1c(%ebp)
  100bb9:	c7 04 bd a0 27 19 00 	movl   $0x1,0x1927a0(,%edi,4)
  100bc0:	01 00 00 00 
  100bc4:	8b 75 f0             	mov    -0x10(%ebp),%esi
  100bc7:	d1 fe                	sar    %esi
  100bc9:	03 75 e8             	add    -0x18(%ebp),%esi
  100bcc:	8d 0c 76             	lea    (%esi,%esi,2),%ecx
  100bcf:	d1 e1                	shl    %ecx
  100bd1:	0f b6 c9             	movzbl %cl,%ecx
  100bd4:	c1 e1 10             	shl    $0x10,%ecx
  100bd7:	89 4d ec             	mov    %ecx,-0x14(%ebp)
  100bda:	8d 0c f5 00 00 00 00 	lea    0x0(,%esi,8),%ecx
  100be1:	89 f2                	mov    %esi,%edx
  100be3:	29 d1                	sub    %edx,%ecx
  100be5:	0f b6 c9             	movzbl %cl,%ecx
  100be8:	c1 e1 08             	shl    $0x8,%ecx
  100beb:	0b 4d ec             	or     -0x14(%ebp),%ecx
  100bee:	0f b6 f2             	movzbl %dl,%esi
  100bf1:	09 f1                	or     %esi,%ecx
  100bf3:	89 0c bd a0 37 19 00 	mov    %ecx,0x1937a0(,%edi,4)
  100bfa:	89 5d ec             	mov    %ebx,-0x14(%ebp)
  100bfd:	8b 75 e4             	mov    -0x1c(%ebp),%esi
  100c00:	ff 45 f0             	incl   -0x10(%ebp)
  100c03:	8b 7d f0             	mov    -0x10(%ebp),%edi
  100c06:	81 ff 00 04 00 00    	cmp    $0x400,%edi
  100c0c:	75 98                	jne    100ba6 <update+0xe6>
  100c0e:	83 c4 10             	add    $0x10,%esp
  100c11:	5b                   	pop    %ebx
  100c12:	5e                   	pop    %esi
  100c13:	5f                   	pop    %edi
  100c14:	5d                   	pop    %ebp
  100c15:	c3                   	ret    
  100c16:	66 90                	xchg   %ax,%ax

00100c18 <video_test>:
  100c18:	55                   	push   %ebp
  100c19:	89 e5                	mov    %esp,%ebp
  100c1b:	57                   	push   %edi
  100c1c:	56                   	push   %esi
  100c1d:	53                   	push   %ebx
  100c1e:	83 ec 2c             	sub    $0x2c,%esp
  100c21:	c7 45 d4 00 00 00 00 	movl   $0x0,-0x2c(%ebp)
  100c28:	31 f6                	xor    %esi,%esi
  100c2a:	31 db                	xor    %ebx,%ebx
  100c2c:	83 ec 08             	sub    $0x8,%esp
  100c2f:	8d 45 e0             	lea    -0x20(%ebp),%eax
  100c32:	50                   	push   %eax
  100c33:	6a 06                	push   $0x6
  100c35:	e8 a6 01 00 00       	call   100de0 <ioe_read>
  100c3a:	6a 00                	push   $0x0
  100c3c:	68 e8 03 00 00       	push   $0x3e8
  100c41:	ff 75 e4             	pushl  -0x1c(%ebp)
  100c44:	ff 75 e0             	pushl  -0x20(%ebp)
  100c47:	e8 18 08 00 00       	call   101464 <__udivdi3>
  100c4c:	89 c7                	mov    %eax,%edi
  100c4e:	29 d8                	sub    %ebx,%eax
  100c50:	83 c4 20             	add    $0x20,%esp
  100c53:	83 f8 21             	cmp    $0x21,%eax
  100c56:	77 28                	ja     100c80 <video_test+0x68>
  100c58:	89 f8                	mov    %edi,%eax
  100c5a:	29 f0                	sub    %esi,%eax
  100c5c:	3d e8 03 00 00       	cmp    $0x3e8,%eax
  100c61:	76 c9                	jbe    100c2c <video_test+0x14>
  100c63:	50                   	push   %eax
  100c64:	ff 75 d4             	pushl  -0x2c(%ebp)
  100c67:	57                   	push   %edi
  100c68:	68 d6 22 10 00       	push   $0x1022d6
  100c6d:	e8 7e 0a 00 00       	call   1016f0 <printf>
  100c72:	83 c4 10             	add    $0x10,%esp
  100c75:	89 fe                	mov    %edi,%esi
  100c77:	c7 45 d4 00 00 00 00 	movl   $0x0,-0x2c(%ebp)
  100c7e:	eb ac                	jmp    100c2c <video_test+0x14>
  100c80:	e8 3b fe ff ff       	call   100ac0 <update>
  100c85:	e8 fe fc ff ff       	call   100988 <redraw>
  100c8a:	ff 45 d4             	incl   -0x2c(%ebp)
  100c8d:	89 fb                	mov    %edi,%ebx
  100c8f:	eb c7                	jmp    100c58 <video_test+0x40>
  100c91:	66 90                	xchg   %ax,%ax
  100c93:	90                   	nop

00100c94 <mp_print>:
  100c94:	55                   	push   %ebp
  100c95:	89 e5                	mov    %esp,%ebp
  100c97:	83 ec 08             	sub    $0x8,%esp
  100c9a:	66 90                	xchg   %ax,%ax
  100c9c:	e8 67 04 00 00       	call   101108 <cpu_current>
  100ca1:	83 ec 08             	sub    $0x8,%esp
  100ca4:	50                   	push   %eax
  100ca5:	68 04 23 10 00       	push   $0x102304
  100caa:	e8 41 0a 00 00       	call   1016f0 <printf>
  100caf:	83 c4 10             	add    $0x10,%esp
  100cb2:	eb e8                	jmp    100c9c <mp_print+0x8>

00100cb4 <putch>:
  100cb4:	55                   	push   %ebp
  100cb5:	89 e5                	mov    %esp,%ebp
  100cb7:	8b 45 08             	mov    0x8(%ebp),%eax
  100cba:	ba f8 03 00 00       	mov    $0x3f8,%edx
  100cbf:	ee                   	out    %al,(%dx)
  100cc0:	5d                   	pop    %ebp
  100cc1:	c3                   	ret    
  100cc2:	66 90                	xchg   %ax,%ax

00100cc4 <halt>:
  100cc4:	55                   	push   %ebp
  100cc5:	89 e5                	mov    %esp,%ebp
  100cc7:	8b 45 08             	mov    0x8(%ebp),%eax
  100cca:	d6                   	(bad)  
  100ccb:	eb fe                	jmp    100ccb <halt+0x7>
  100ccd:	66 90                	xchg   %ax,%ax
  100ccf:	90                   	nop

00100cd0 <_trm_init>:
  100cd0:	55                   	push   %ebp
  100cd1:	89 e5                	mov    %esp,%ebp
  100cd3:	83 ec 14             	sub    $0x14,%esp
  100cd6:	68 07 23 10 00       	push   $0x102307
  100cdb:	e8 30 f3 ff ff       	call   100010 <main>
  100ce0:	d6                   	(bad)  
  100ce1:	83 c4 10             	add    $0x10,%esp
  100ce4:	eb fe                	jmp    100ce4 <_trm_init+0x14>
  100ce6:	66 90                	xchg   %ax,%ax

00100ce8 <__am_timer_config>:
  100ce8:	55                   	push   %ebp
  100ce9:	89 e5                	mov    %esp,%ebp
  100ceb:	8b 45 08             	mov    0x8(%ebp),%eax
  100cee:	66 c7 00 01 01       	movw   $0x101,(%eax)
  100cf3:	5d                   	pop    %ebp
  100cf4:	c3                   	ret    
  100cf5:	66 90                	xchg   %ax,%ax
  100cf7:	90                   	nop

00100cf8 <__am_input_config>:
  100cf8:	55                   	push   %ebp
  100cf9:	89 e5                	mov    %esp,%ebp
  100cfb:	8b 45 08             	mov    0x8(%ebp),%eax
  100cfe:	c6 00 01             	movb   $0x1,(%eax)
  100d01:	5d                   	pop    %ebp
  100d02:	c3                   	ret    
  100d03:	90                   	nop

00100d04 <__am_uart_config>:
  100d04:	55                   	push   %ebp
  100d05:	89 e5                	mov    %esp,%ebp
  100d07:	8b 45 08             	mov    0x8(%ebp),%eax
  100d0a:	c6 00 00             	movb   $0x0,(%eax)
  100d0d:	5d                   	pop    %ebp
  100d0e:	c3                   	ret    
  100d0f:	90                   	nop

00100d10 <__am_disk_config>:
  100d10:	55                   	push   %ebp
  100d11:	89 e5                	mov    %esp,%ebp
  100d13:	8b 45 08             	mov    0x8(%ebp),%eax
  100d16:	c6 00 00             	movb   $0x0,(%eax)
  100d19:	5d                   	pop    %ebp
  100d1a:	c3                   	ret    
  100d1b:	90                   	nop

00100d1c <__am_net_config>:
  100d1c:	55                   	push   %ebp
  100d1d:	89 e5                	mov    %esp,%ebp
  100d1f:	8b 45 08             	mov    0x8(%ebp),%eax
  100d22:	c6 00 00             	movb   $0x0,(%eax)
  100d25:	5d                   	pop    %ebp
  100d26:	c3                   	ret    
  100d27:	90                   	nop

00100d28 <fail>:
  100d28:	55                   	push   %ebp
  100d29:	89 e5                	mov    %esp,%ebp
  100d2b:	53                   	push   %ebx
  100d2c:	50                   	push   %eax
  100d2d:	bb 09 23 10 00       	mov    $0x102309,%ebx
  100d32:	b8 41 00 00 00       	mov    $0x41,%eax
  100d37:	90                   	nop
  100d38:	83 ec 0c             	sub    $0xc,%esp
  100d3b:	50                   	push   %eax
  100d3c:	e8 73 ff ff ff       	call   100cb4 <putch>
  100d41:	43                   	inc    %ebx
  100d42:	0f be 03             	movsbl (%ebx),%eax
  100d45:	83 c4 10             	add    $0x10,%esp
  100d48:	84 c0                	test   %al,%al
  100d4a:	75 ec                	jne    100d38 <fail+0x10>
  100d4c:	bb 14 23 10 00       	mov    $0x102314,%ebx
  100d51:	b8 61 00 00 00       	mov    $0x61,%eax
  100d56:	66 90                	xchg   %ax,%ax
  100d58:	83 ec 0c             	sub    $0xc,%esp
  100d5b:	50                   	push   %eax
  100d5c:	e8 53 ff ff ff       	call   100cb4 <putch>
  100d61:	43                   	inc    %ebx
  100d62:	0f be 03             	movsbl (%ebx),%eax
  100d65:	83 c4 10             	add    $0x10,%esp
  100d68:	84 c0                	test   %al,%al
  100d6a:	75 ec                	jne    100d58 <fail+0x30>
  100d6c:	bb 30 23 10 00       	mov    $0x102330,%ebx
  100d71:	b8 20 00 00 00       	mov    $0x20,%eax
  100d76:	66 90                	xchg   %ax,%ax
  100d78:	83 ec 0c             	sub    $0xc,%esp
  100d7b:	50                   	push   %eax
  100d7c:	e8 33 ff ff ff       	call   100cb4 <putch>
  100d81:	43                   	inc    %ebx
  100d82:	0f be 03             	movsbl (%ebx),%eax
  100d85:	83 c4 10             	add    $0x10,%esp
  100d88:	84 c0                	test   %al,%al
  100d8a:	75 ec                	jne    100d78 <fail+0x50>
  100d8c:	83 ec 0c             	sub    $0xc,%esp
  100d8f:	6a 01                	push   $0x1
  100d91:	e8 2e ff ff ff       	call   100cc4 <halt>
  100d96:	66 90                	xchg   %ax,%ax

00100d98 <ioe_init>:
  100d98:	55                   	push   %ebp
  100d99:	89 e5                	mov    %esp,%ebp
  100d9b:	83 ec 08             	sub    $0x8,%esp
  100d9e:	31 c0                	xor    %eax,%eax
  100da0:	eb 0a                	jmp    100dac <ioe_init+0x14>
  100da2:	66 90                	xchg   %ax,%ax
  100da4:	40                   	inc    %eax
  100da5:	3d 80 00 00 00       	cmp    $0x80,%eax
  100daa:	74 1e                	je     100dca <ioe_init+0x32>
  100dac:	8b 14 85 40 03 11 00 	mov    0x110340(,%eax,4),%edx
  100db3:	85 d2                	test   %edx,%edx
  100db5:	75 ed                	jne    100da4 <ioe_init+0xc>
  100db7:	c7 04 85 40 03 11 00 	movl   $0x100d28,0x110340(,%eax,4)
  100dbe:	28 0d 10 00 
  100dc2:	40                   	inc    %eax
  100dc3:	3d 80 00 00 00       	cmp    $0x80,%eax
  100dc8:	75 e2                	jne    100dac <ioe_init+0x14>
  100dca:	e8 cd 00 00 00       	call   100e9c <__am_gpu_init>
  100dcf:	e8 3c 00 00 00       	call   100e10 <__am_timer_init>
  100dd4:	e8 13 01 00 00       	call   100eec <__am_audio_init>
  100dd9:	b0 01                	mov    $0x1,%al
  100ddb:	c9                   	leave  
  100ddc:	c3                   	ret    
  100ddd:	66 90                	xchg   %ax,%ax
  100ddf:	90                   	nop

00100de0 <ioe_read>:
  100de0:	55                   	push   %ebp
  100de1:	89 e5                	mov    %esp,%ebp
  100de3:	8b 45 08             	mov    0x8(%ebp),%eax
  100de6:	8b 55 0c             	mov    0xc(%ebp),%edx
  100de9:	89 55 08             	mov    %edx,0x8(%ebp)
  100dec:	8b 04 85 40 03 11 00 	mov    0x110340(,%eax,4),%eax
  100df3:	5d                   	pop    %ebp
  100df4:	ff e0                	jmp    *%eax
  100df6:	66 90                	xchg   %ax,%ax

00100df8 <ioe_write>:
  100df8:	55                   	push   %ebp
  100df9:	89 e5                	mov    %esp,%ebp
  100dfb:	8b 45 08             	mov    0x8(%ebp),%eax
  100dfe:	8b 55 0c             	mov    0xc(%ebp),%edx
  100e01:	89 55 08             	mov    %edx,0x8(%ebp)
  100e04:	8b 04 85 40 03 11 00 	mov    0x110340(,%eax,4),%eax
  100e0b:	5d                   	pop    %ebp
  100e0c:	ff e0                	jmp    *%eax
  100e0e:	66 90                	xchg   %ax,%ax

00100e10 <__am_timer_init>:
  100e10:	c7 05 a0 47 19 00 00 	movl   $0x0,0x1947a0
  100e17:	00 00 00 
  100e1a:	c7 05 a4 47 19 00 00 	movl   $0x0,0x1947a4
  100e21:	00 00 00 
  100e24:	c3                   	ret    
  100e25:	66 90                	xchg   %ax,%ax
  100e27:	90                   	nop

00100e28 <__am_timer_uptime>:
  100e28:	55                   	push   %ebp
  100e29:	89 e5                	mov    %esp,%ebp
  100e2b:	a1 a0 47 19 00       	mov    0x1947a0,%eax
  100e30:	8b 15 a4 47 19 00    	mov    0x1947a4,%edx
  100e36:	05 e8 03 00 00       	add    $0x3e8,%eax
  100e3b:	83 d2 00             	adc    $0x0,%edx
  100e3e:	8b 4d 08             	mov    0x8(%ebp),%ecx
  100e41:	89 01                	mov    %eax,(%ecx)
  100e43:	89 51 04             	mov    %edx,0x4(%ecx)
  100e46:	a3 a0 47 19 00       	mov    %eax,0x1947a0
  100e4b:	89 15 a4 47 19 00    	mov    %edx,0x1947a4
  100e51:	5d                   	pop    %ebp
  100e52:	c3                   	ret    
  100e53:	90                   	nop

00100e54 <__am_timer_rtc>:
  100e54:	55                   	push   %ebp
  100e55:	89 e5                	mov    %esp,%ebp
  100e57:	8b 45 08             	mov    0x8(%ebp),%eax
  100e5a:	c7 40 14 00 00 00 00 	movl   $0x0,0x14(%eax)
  100e61:	c7 40 10 00 00 00 00 	movl   $0x0,0x10(%eax)
  100e68:	c7 40 0c 00 00 00 00 	movl   $0x0,0xc(%eax)
  100e6f:	c7 40 08 00 00 00 00 	movl   $0x0,0x8(%eax)
  100e76:	c7 40 04 00 00 00 00 	movl   $0x0,0x4(%eax)
  100e7d:	c7 00 6c 07 00 00    	movl   $0x76c,(%eax)
  100e83:	5d                   	pop    %ebp
  100e84:	c3                   	ret    
  100e85:	66 90                	xchg   %ax,%ax
  100e87:	90                   	nop

00100e88 <__am_input_keybrd>:
  100e88:	55                   	push   %ebp
  100e89:	89 e5                	mov    %esp,%ebp
  100e8b:	8b 45 08             	mov    0x8(%ebp),%eax
  100e8e:	c6 00 00             	movb   $0x0,(%eax)
  100e91:	c7 40 04 00 00 00 00 	movl   $0x0,0x4(%eax)
  100e98:	5d                   	pop    %ebp
  100e99:	c3                   	ret    
  100e9a:	66 90                	xchg   %ax,%ax

00100e9c <__am_gpu_init>:
  100e9c:	c3                   	ret    
  100e9d:	66 90                	xchg   %ax,%ax
  100e9f:	90                   	nop

00100ea0 <__am_gpu_config>:
  100ea0:	55                   	push   %ebp
  100ea1:	89 e5                	mov    %esp,%ebp
  100ea3:	8b 45 08             	mov    0x8(%ebp),%eax
  100ea6:	66 c7 00 01 00       	movw   $0x1,(%eax)
  100eab:	c7 40 04 00 00 00 00 	movl   $0x0,0x4(%eax)
  100eb2:	c7 40 08 00 00 00 00 	movl   $0x0,0x8(%eax)
  100eb9:	c7 40 0c 00 00 00 00 	movl   $0x0,0xc(%eax)
  100ec0:	5d                   	pop    %ebp
  100ec1:	c3                   	ret    
  100ec2:	66 90                	xchg   %ax,%ax

00100ec4 <__am_gpu_fbdraw>:
  100ec4:	55                   	push   %ebp
  100ec5:	89 e5                	mov    %esp,%ebp
  100ec7:	8b 45 08             	mov    0x8(%ebp),%eax
  100eca:	80 78 14 00          	cmpb   $0x0,0x14(%eax)
  100ece:	74 0b                	je     100edb <__am_gpu_fbdraw+0x17>
  100ed0:	b8 01 00 00 00       	mov    $0x1,%eax
  100ed5:	ba 04 01 00 00       	mov    $0x104,%edx
  100eda:	ef                   	out    %eax,(%dx)
  100edb:	5d                   	pop    %ebp
  100edc:	c3                   	ret    
  100edd:	66 90                	xchg   %ax,%ax
  100edf:	90                   	nop

00100ee0 <__am_gpu_status>:
  100ee0:	55                   	push   %ebp
  100ee1:	89 e5                	mov    %esp,%ebp
  100ee3:	8b 45 08             	mov    0x8(%ebp),%eax
  100ee6:	c6 00 01             	movb   $0x1,(%eax)
  100ee9:	5d                   	pop    %ebp
  100eea:	c3                   	ret    
  100eeb:	90                   	nop

00100eec <__am_audio_init>:
  100eec:	c3                   	ret    
  100eed:	66 90                	xchg   %ax,%ax
  100eef:	90                   	nop

00100ef0 <__am_audio_config>:
  100ef0:	55                   	push   %ebp
  100ef1:	89 e5                	mov    %esp,%ebp
  100ef3:	8b 45 08             	mov    0x8(%ebp),%eax
  100ef6:	c6 00 00             	movb   $0x0,(%eax)
  100ef9:	5d                   	pop    %ebp
  100efa:	c3                   	ret    
  100efb:	90                   	nop

00100efc <__am_audio_ctrl>:
  100efc:	c3                   	ret    
  100efd:	66 90                	xchg   %ax,%ax
  100eff:	90                   	nop

00100f00 <__am_audio_status>:
  100f00:	55                   	push   %ebp
  100f01:	89 e5                	mov    %esp,%ebp
  100f03:	8b 45 08             	mov    0x8(%ebp),%eax
  100f06:	c7 00 00 00 00 00    	movl   $0x0,(%eax)
  100f0c:	5d                   	pop    %ebp
  100f0d:	c3                   	ret    
  100f0e:	66 90                	xchg   %ax,%ax

00100f10 <__am_audio_play>:
  100f10:	c3                   	ret    
  100f11:	66 90                	xchg   %ax,%ax
  100f13:	90                   	nop

00100f14 <__am_irq_handle>:
  100f14:	55                   	push   %ebp
  100f15:	89 e5                	mov    %esp,%ebp
  100f17:	53                   	push   %ebx
  100f18:	83 ec 14             	sub    $0x14,%esp
  100f1b:	8b 15 c0 4f 19 00    	mov    0x194fc0,%edx
  100f21:	85 d2                	test   %edx,%edx
  100f23:	74 43                	je     100f68 <__am_irq_handle+0x54>
  100f25:	31 c9                	xor    %ecx,%ecx
  100f27:	31 c0                	xor    %eax,%eax
  100f29:	89 4c 05 ec          	mov    %ecx,-0x14(%ebp,%eax,1)
  100f2d:	83 c0 04             	add    $0x4,%eax
  100f30:	83 f8 0c             	cmp    $0xc,%eax
  100f33:	72 f4                	jb     100f29 <__am_irq_handle+0x15>
  100f35:	c7 45 e8 04 00 00 00 	movl   $0x4,-0x18(%ebp)
  100f3c:	83 ec 0c             	sub    $0xc,%esp
  100f3f:	ff 75 08             	pushl  0x8(%ebp)
  100f42:	83 ec 10             	sub    $0x10,%esp
  100f45:	89 e3                	mov    %esp,%ebx
  100f47:	31 c0                	xor    %eax,%eax
  100f49:	8b 4c 05 e8          	mov    -0x18(%ebp,%eax,1),%ecx
  100f4d:	89 0c 03             	mov    %ecx,(%ebx,%eax,1)
  100f50:	83 c0 04             	add    $0x4,%eax
  100f53:	83 f8 10             	cmp    $0x10,%eax
  100f56:	72 f1                	jb     100f49 <__am_irq_handle+0x35>
  100f58:	ff d2                	call   *%edx
  100f5a:	83 c4 20             	add    $0x20,%esp
  100f5d:	85 c0                	test   %eax,%eax
  100f5f:	74 0f                	je     100f70 <__am_irq_handle+0x5c>
  100f61:	8b 5d fc             	mov    -0x4(%ebp),%ebx
  100f64:	c9                   	leave  
  100f65:	c3                   	ret    
  100f66:	66 90                	xchg   %ax,%ax
  100f68:	8b 45 08             	mov    0x8(%ebp),%eax
  100f6b:	8b 5d fc             	mov    -0x4(%ebp),%ebx
  100f6e:	c9                   	leave  
  100f6f:	c3                   	ret    
  100f70:	50                   	push   %eax
  100f71:	6a 19                	push   $0x19
  100f73:	68 80 23 10 00       	push   $0x102380
  100f78:	68 b0 21 10 00       	push   $0x1021b0
  100f7d:	e8 6e 07 00 00       	call   1016f0 <printf>
  100f82:	c7 04 24 01 00 00 00 	movl   $0x1,(%esp)
  100f89:	e8 36 fd ff ff       	call   100cc4 <halt>
  100f8e:	66 90                	xchg   %ax,%ax

00100f90 <cte_init>:
  100f90:	55                   	push   %ebp
  100f91:	89 e5                	mov    %esp,%ebp
  100f93:	ba 5f 10 10 00       	mov    $0x10105f,%edx
  100f98:	89 d0                	mov    %edx,%eax
  100f9a:	c1 e8 10             	shr    $0x10,%eax
  100f9d:	89 c1                	mov    %eax,%ecx
  100f9f:	31 c0                	xor    %eax,%eax
  100fa1:	8d 76 00             	lea    0x0(%esi),%esi
  100fa4:	66 89 14 c5 c0 47 19 	mov    %dx,0x1947c0(,%eax,8)
  100fab:	00 
  100fac:	c7 04 c5 c2 47 19 00 	movl   $0x8f000008,0x1947c2(,%eax,8)
  100fb3:	08 00 00 8f 
  100fb7:	66 89 0c c5 c6 47 19 	mov    %cx,0x1947c6(,%eax,8)
  100fbe:	00 
  100fbf:	40                   	inc    %eax
  100fc0:	3d 00 01 00 00       	cmp    $0x100,%eax
  100fc5:	75 dd                	jne    100fa4 <cte_init+0x14>
  100fc7:	b8 5b 10 10 00       	mov    $0x10105b,%eax
  100fcc:	66 a3 c0 48 19 00    	mov    %ax,0x1948c0
  100fd2:	c7 05 c2 48 19 00 08 	movl   $0x8e000008,0x1948c2
  100fd9:	00 00 8e 
  100fdc:	c1 e8 10             	shr    $0x10,%eax
  100fdf:	66 a3 c6 48 19 00    	mov    %ax,0x1948c6
  100fe5:	b8 4d 10 10 00       	mov    $0x10104d,%eax
  100fea:	66 a3 c0 4b 19 00    	mov    %ax,0x194bc0
  100ff0:	c7 05 c2 4b 19 00 08 	movl   $0xef000008,0x194bc2
  100ff7:	00 00 ef 
  100ffa:	c1 e8 10             	shr    $0x10,%eax
  100ffd:	66 a3 c6 4b 19 00    	mov    %ax,0x194bc6
  101003:	b8 54 10 10 00       	mov    $0x101054,%eax
  101008:	66 a3 c8 4b 19 00    	mov    %ax,0x194bc8
  10100e:	c7 05 ca 4b 19 00 08 	movl   $0x8f000008,0x194bca
  101015:	00 00 8f 
  101018:	c1 e8 10             	shr    $0x10,%eax
  10101b:	66 a3 ce 4b 19 00    	mov    %ax,0x194bce
  101021:	66 c7 05 a8 47 19 00 	movw   $0x800,0x1947a8
  101028:	00 08 
  10102a:	c7 05 aa 47 19 00 c0 	movl   $0x1947c0,0x1947aa
  101031:	47 19 00 
  101034:	b8 a8 47 19 00       	mov    $0x1947a8,%eax
  101039:	0f 01 18             	lidtl  (%eax)
  10103c:	8b 45 08             	mov    0x8(%ebp),%eax
  10103f:	a3 c0 4f 19 00       	mov    %eax,0x194fc0
  101044:	b0 01                	mov    $0x1,%al
  101046:	5d                   	pop    %ebp
  101047:	c3                   	ret    

00101048 <yield>:
  101048:	cd 81                	int    $0x81
  10104a:	c3                   	ret    
  10104b:	90                   	nop

0010104c <iset>:
  10104c:	c3                   	ret    

0010104d <__am_vecsys>:
  10104d:	68 80 00 00 00       	push   $0x80
  101052:	eb 0f                	jmp    101063 <__am_asm_trap>

00101054 <__am_vectrap>:
  101054:	68 81 00 00 00       	push   $0x81
  101059:	eb 08                	jmp    101063 <__am_asm_trap>

0010105b <__am_irq0>:
  10105b:	6a 20                	push   $0x20
  10105d:	eb 04                	jmp    101063 <__am_asm_trap>

0010105f <__am_vecnull>:
  10105f:	6a ff                	push   $0xffffffff
  101061:	eb 00                	jmp    101063 <__am_asm_trap>

00101063 <__am_asm_trap>:
  101063:	60                   	pusha  
  101064:	6a 00                	push   $0x0
  101066:	54                   	push   %esp
  101067:	e8 a8 fe ff ff       	call   100f14 <__am_irq_handle>
  10106c:	83 c4 04             	add    $0x4,%esp
  10106f:	83 c4 04             	add    $0x4,%esp
  101072:	61                   	popa   
  101073:	83 c4 04             	add    $0x4,%esp
  101076:	cf                   	iret   
  101077:	90                   	nop

00101078 <vme_init>:
  101078:	55                   	push   %ebp
  101079:	89 e5                	mov    %esp,%ebp
  10107b:	83 ec 24             	sub    $0x24,%esp
  10107e:	8b 45 08             	mov    0x8(%ebp),%eax
  101081:	a3 c8 4f 19 00       	mov    %eax,0x194fc8
  101086:	68 00 10 00 00       	push   $0x1000
  10108b:	ff d0                	call   *%eax
  10108d:	a3 d8 4f 19 00       	mov    %eax,0x194fd8
  101092:	0f 22 d8             	mov    %eax,%cr3
  101095:	0f 20 c0             	mov    %cr0,%eax
  101098:	89 45 f4             	mov    %eax,-0xc(%ebp)
  10109b:	8b 45 f4             	mov    -0xc(%ebp),%eax
  10109e:	0d 00 00 00 80       	or     $0x80000000,%eax
  1010a3:	0f 22 c0             	mov    %eax,%cr0
  1010a6:	c7 05 c4 4f 19 00 01 	movl   $0x1,0x194fc4
  1010ad:	00 00 00 
  1010b0:	b0 01                	mov    $0x1,%al
  1010b2:	c9                   	leave  
  1010b3:	c3                   	ret    

001010b4 <protect>:
  1010b4:	55                   	push   %ebp
  1010b5:	89 e5                	mov    %esp,%ebp
  1010b7:	53                   	push   %ebx
  1010b8:	83 ec 10             	sub    $0x10,%esp
  1010bb:	8b 5d 08             	mov    0x8(%ebp),%ebx
  1010be:	68 00 10 00 00       	push   $0x1000
  1010c3:	ff 15 c8 4f 19 00    	call   *0x194fc8
  1010c9:	89 43 0c             	mov    %eax,0xc(%ebx)
  1010cc:	c7 43 04 00 00 00 40 	movl   $0x40000000,0x4(%ebx)
  1010d3:	c7 43 08 00 00 00 c0 	movl   $0xc0000000,0x8(%ebx)
  1010da:	c7 03 00 10 00 00    	movl   $0x1000,(%ebx)
  1010e0:	83 c4 0c             	add    $0xc,%esp
  1010e3:	68 00 10 00 00       	push   $0x1000
  1010e8:	ff 35 d8 4f 19 00    	pushl  0x194fd8
  1010ee:	50                   	push   %eax
  1010ef:	e8 b0 06 00 00       	call   1017a4 <memcpy>
  1010f4:	83 c4 10             	add    $0x10,%esp
  1010f7:	8b 5d fc             	mov    -0x4(%ebp),%ebx
  1010fa:	c9                   	leave  
  1010fb:	c3                   	ret    

001010fc <map>:
  1010fc:	c3                   	ret    
  1010fd:	66 90                	xchg   %ax,%ax
  1010ff:	90                   	nop

00101100 <ucontext>:
  101100:	31 c0                	xor    %eax,%eax
  101102:	c3                   	ret    
  101103:	90                   	nop

00101104 <mpe_init>:
  101104:	31 c0                	xor    %eax,%eax
  101106:	c3                   	ret    
  101107:	90                   	nop

00101108 <cpu_current>:
  101108:	31 c0                	xor    %eax,%eax
  10110a:	c3                   	ret    
  10110b:	90                   	nop

0010110c <__udivmoddi4>:
  10110c:	55                   	push   %ebp
  10110d:	89 e5                	mov    %esp,%ebp
  10110f:	57                   	push   %edi
  101110:	56                   	push   %esi
  101111:	53                   	push   %ebx
  101112:	83 ec 34             	sub    $0x34,%esp
  101115:	8b 75 08             	mov    0x8(%ebp),%esi
  101118:	89 75 d4             	mov    %esi,-0x2c(%ebp)
  10111b:	8b 5d 0c             	mov    0xc(%ebp),%ebx
  10111e:	8b 55 10             	mov    0x10(%ebp),%edx
  101121:	8b 4d 14             	mov    0x14(%ebp),%ecx
  101124:	89 55 e8             	mov    %edx,-0x18(%ebp)
  101127:	89 4d ec             	mov    %ecx,-0x14(%ebp)
  10112a:	89 cf                	mov    %ecx,%edi
  10112c:	85 db                	test   %ebx,%ebx
  10112e:	75 34                	jne    101164 <__udivmoddi4+0x58>
  101130:	85 c9                	test   %ecx,%ecx
  101132:	0f 85 98 01 00 00    	jne    1012d0 <__udivmoddi4+0x1c4>
  101138:	89 d1                	mov    %edx,%ecx
  10113a:	8b 5d 18             	mov    0x18(%ebp),%ebx
  10113d:	85 db                	test   %ebx,%ebx
  10113f:	74 12                	je     101153 <__udivmoddi4+0x47>
  101141:	89 f0                	mov    %esi,%eax
  101143:	31 d2                	xor    %edx,%edx
  101145:	f7 f1                	div    %ecx
  101147:	8b 45 18             	mov    0x18(%ebp),%eax
  10114a:	89 10                	mov    %edx,(%eax)
  10114c:	c7 40 04 00 00 00 00 	movl   $0x0,0x4(%eax)
  101153:	8b 45 d4             	mov    -0x2c(%ebp),%eax
  101156:	31 d2                	xor    %edx,%edx
  101158:	f7 f1                	div    %ecx
  10115a:	31 d2                	xor    %edx,%edx
  10115c:	83 c4 34             	add    $0x34,%esp
  10115f:	5b                   	pop    %ebx
  101160:	5e                   	pop    %esi
  101161:	5f                   	pop    %edi
  101162:	5d                   	pop    %ebp
  101163:	c3                   	ret    
  101164:	89 d8                	mov    %ebx,%eax
  101166:	8b 4d e8             	mov    -0x18(%ebp),%ecx
  101169:	85 c9                	test   %ecx,%ecx
  10116b:	75 5f                	jne    1011cc <__udivmoddi4+0xc0>
  10116d:	85 ff                	test   %edi,%edi
  10116f:	0f 84 db 01 00 00    	je     101350 <__udivmoddi4+0x244>
  101175:	8b 55 d4             	mov    -0x2c(%ebp),%edx
  101178:	85 d2                	test   %edx,%edx
  10117a:	0f 84 38 02 00 00    	je     1013b8 <__udivmoddi4+0x2ac>
  101180:	8d 57 ff             	lea    -0x1(%edi),%edx
  101183:	85 fa                	test   %edi,%edx
  101185:	0f 84 7d 02 00 00    	je     101408 <__udivmoddi4+0x2fc>
  10118b:	0f bd cf             	bsr    %edi,%ecx
  10118e:	83 f1 1f             	xor    $0x1f,%ecx
  101191:	0f bd d3             	bsr    %ebx,%edx
  101194:	83 f2 1f             	xor    $0x1f,%edx
  101197:	29 d1                	sub    %edx,%ecx
  101199:	83 f9 1e             	cmp    $0x1e,%ecx
  10119c:	0f 87 b2 01 00 00    	ja     101354 <__udivmoddi4+0x248>
  1011a2:	8d 79 01             	lea    0x1(%ecx),%edi
  1011a5:	89 7d c8             	mov    %edi,-0x38(%ebp)
  1011a8:	ba 20 00 00 00       	mov    $0x20,%edx
  1011ad:	29 fa                	sub    %edi,%edx
  1011af:	8b 75 d4             	mov    -0x2c(%ebp),%esi
  1011b2:	88 d1                	mov    %dl,%cl
  1011b4:	d3 e6                	shl    %cl,%esi
  1011b6:	89 f9                	mov    %edi,%ecx
  1011b8:	d3 eb                	shr    %cl,%ebx
  1011ba:	88 d1                	mov    %dl,%cl
  1011bc:	d3 e0                	shl    %cl,%eax
  1011be:	8b 55 d4             	mov    -0x2c(%ebp),%edx
  1011c1:	89 f9                	mov    %edi,%ecx
  1011c3:	d3 ea                	shr    %cl,%edx
  1011c5:	09 d0                	or     %edx,%eax
  1011c7:	31 ff                	xor    %edi,%edi
  1011c9:	eb 54                	jmp    10121f <__udivmoddi4+0x113>
  1011cb:	90                   	nop
  1011cc:	85 ff                	test   %edi,%edi
  1011ce:	0f 84 24 01 00 00    	je     1012f8 <__udivmoddi4+0x1ec>
  1011d4:	0f bd cf             	bsr    %edi,%ecx
  1011d7:	83 f1 1f             	xor    $0x1f,%ecx
  1011da:	0f bd d3             	bsr    %ebx,%edx
  1011dd:	83 f2 1f             	xor    $0x1f,%edx
  1011e0:	29 d1                	sub    %edx,%ecx
  1011e2:	83 f9 1f             	cmp    $0x1f,%ecx
  1011e5:	0f 87 69 01 00 00    	ja     101354 <__udivmoddi4+0x248>
  1011eb:	8d 79 01             	lea    0x1(%ecx),%edi
  1011ee:	89 7d c8             	mov    %edi,-0x38(%ebp)
  1011f1:	8b 75 d4             	mov    -0x2c(%ebp),%esi
  1011f4:	0f 84 32 02 00 00    	je     10142c <__udivmoddi4+0x320>
  1011fa:	ba 20 00 00 00       	mov    $0x20,%edx
  1011ff:	29 fa                	sub    %edi,%edx
  101201:	89 f9                	mov    %edi,%ecx
  101203:	d3 eb                	shr    %cl,%ebx
  101205:	88 d1                	mov    %dl,%cl
  101207:	d3 e0                	shl    %cl,%eax
  101209:	89 45 d4             	mov    %eax,-0x2c(%ebp)
  10120c:	89 f0                	mov    %esi,%eax
  10120e:	89 f9                	mov    %edi,%ecx
  101210:	d3 e8                	shr    %cl,%eax
  101212:	89 c1                	mov    %eax,%ecx
  101214:	8b 45 d4             	mov    -0x2c(%ebp),%eax
  101217:	09 c8                	or     %ecx,%eax
  101219:	88 d1                	mov    %dl,%cl
  10121b:	d3 e6                	shl    %cl,%esi
  10121d:	31 ff                	xor    %edi,%edi
  10121f:	c7 45 d4 00 00 00 00 	movl   $0x0,-0x2c(%ebp)
  101226:	89 c1                	mov    %eax,%ecx
  101228:	8d 04 1b             	lea    (%ebx,%ebx,1),%eax
  10122b:	89 45 d0             	mov    %eax,-0x30(%ebp)
  10122e:	89 ca                	mov    %ecx,%edx
  101230:	c1 ea 1f             	shr    $0x1f,%edx
  101233:	89 55 cc             	mov    %edx,-0x34(%ebp)
  101236:	8d 04 09             	lea    (%ecx,%ecx,1),%eax
  101239:	89 f3                	mov    %esi,%ebx
  10123b:	c1 eb 1f             	shr    $0x1f,%ebx
  10123e:	89 da                	mov    %ebx,%edx
  101240:	8d 1c 36             	lea    (%esi,%esi,1),%ebx
  101243:	89 fe                	mov    %edi,%esi
  101245:	c1 ee 1f             	shr    $0x1f,%esi
  101248:	09 de                	or     %ebx,%esi
  10124a:	01 ff                	add    %edi,%edi
  10124c:	0b 7d d4             	or     -0x2c(%ebp),%edi
  10124f:	09 c2                	or     %eax,%edx
  101251:	89 d1                	mov    %edx,%ecx
  101253:	8b 45 d0             	mov    -0x30(%ebp),%eax
  101256:	0b 45 cc             	or     -0x34(%ebp),%eax
  101259:	89 c3                	mov    %eax,%ebx
  10125b:	89 d0                	mov    %edx,%eax
  10125d:	f7 d0                	not    %eax
  10125f:	89 45 e0             	mov    %eax,-0x20(%ebp)
  101262:	89 d8                	mov    %ebx,%eax
  101264:	f7 d0                	not    %eax
  101266:	89 45 e4             	mov    %eax,-0x1c(%ebp)
  101269:	8b 45 e0             	mov    -0x20(%ebp),%eax
  10126c:	8b 55 e4             	mov    -0x1c(%ebp),%edx
  10126f:	03 45 e8             	add    -0x18(%ebp),%eax
  101272:	13 55 ec             	adc    -0x14(%ebp),%edx
  101275:	89 d0                	mov    %edx,%eax
  101277:	c1 f8 1f             	sar    $0x1f,%eax
  10127a:	89 c2                	mov    %eax,%edx
  10127c:	83 e2 01             	and    $0x1,%edx
  10127f:	89 55 d4             	mov    %edx,-0x2c(%ebp)
  101282:	8b 55 e8             	mov    -0x18(%ebp),%edx
  101285:	21 c2                	and    %eax,%edx
  101287:	89 55 d8             	mov    %edx,-0x28(%ebp)
  10128a:	23 45 ec             	and    -0x14(%ebp),%eax
  10128d:	89 45 dc             	mov    %eax,-0x24(%ebp)
  101290:	2b 4d d8             	sub    -0x28(%ebp),%ecx
  101293:	1b 5d dc             	sbb    -0x24(%ebp),%ebx
  101296:	ff 4d c8             	decl   -0x38(%ebp)
  101299:	75 8d                	jne    101228 <__udivmoddi4+0x11c>
  10129b:	89 75 c4             	mov    %esi,-0x3c(%ebp)
  10129e:	89 7d c0             	mov    %edi,-0x40(%ebp)
  1012a1:	8b 75 c0             	mov    -0x40(%ebp),%esi
  1012a4:	8b 7d c4             	mov    -0x3c(%ebp),%edi
  1012a7:	01 f6                	add    %esi,%esi
  1012a9:	11 ff                	adc    %edi,%edi
  1012ab:	8b 45 d4             	mov    -0x2c(%ebp),%eax
  1012ae:	09 f0                	or     %esi,%eax
  1012b0:	89 fa                	mov    %edi,%edx
  1012b2:	8b 75 18             	mov    0x18(%ebp),%esi
  1012b5:	85 f6                	test   %esi,%esi
  1012b7:	0f 84 9f fe ff ff    	je     10115c <__udivmoddi4+0x50>
  1012bd:	8b 7d 18             	mov    0x18(%ebp),%edi
  1012c0:	89 0f                	mov    %ecx,(%edi)
  1012c2:	89 5f 04             	mov    %ebx,0x4(%edi)
  1012c5:	83 c4 34             	add    $0x34,%esp
  1012c8:	5b                   	pop    %ebx
  1012c9:	5e                   	pop    %esi
  1012ca:	5f                   	pop    %edi
  1012cb:	5d                   	pop    %ebp
  1012cc:	c3                   	ret    
  1012cd:	8d 76 00             	lea    0x0(%esi),%esi
  1012d0:	8b 4d 18             	mov    0x18(%ebp),%ecx
  1012d3:	85 c9                	test   %ecx,%ecx
  1012d5:	0f 84 84 00 00 00    	je     10135f <__udivmoddi4+0x253>
  1012db:	8b 45 18             	mov    0x18(%ebp),%eax
  1012de:	8b 5d d4             	mov    -0x2c(%ebp),%ebx
  1012e1:	89 18                	mov    %ebx,(%eax)
  1012e3:	c7 40 04 00 00 00 00 	movl   $0x0,0x4(%eax)
  1012ea:	31 c0                	xor    %eax,%eax
  1012ec:	31 d2                	xor    %edx,%edx
  1012ee:	83 c4 34             	add    $0x34,%esp
  1012f1:	5b                   	pop    %ebx
  1012f2:	5e                   	pop    %esi
  1012f3:	5f                   	pop    %edi
  1012f4:	5d                   	pop    %ebp
  1012f5:	c3                   	ret    
  1012f6:	66 90                	xchg   %ax,%ax
  1012f8:	8d 51 ff             	lea    -0x1(%ecx),%edx
  1012fb:	85 ca                	test   %ecx,%edx
  1012fd:	75 69                	jne    101368 <__udivmoddi4+0x25c>
  1012ff:	8b 7d 18             	mov    0x18(%ebp),%edi
  101302:	85 ff                	test   %edi,%edi
  101304:	74 0f                	je     101315 <__udivmoddi4+0x209>
  101306:	23 55 d4             	and    -0x2c(%ebp),%edx
  101309:	8b 45 18             	mov    0x18(%ebp),%eax
  10130c:	89 10                	mov    %edx,(%eax)
  10130e:	c7 40 04 00 00 00 00 	movl   $0x0,0x4(%eax)
  101315:	83 f9 01             	cmp    $0x1,%ecx
  101318:	0f 84 d6 00 00 00    	je     1013f4 <__udivmoddi4+0x2e8>
  10131e:	0f bc f9             	bsf    %ecx,%edi
  101321:	c7 45 c0 00 00 00 00 	movl   $0x0,-0x40(%ebp)
  101328:	89 d8                	mov    %ebx,%eax
  10132a:	89 f9                	mov    %edi,%ecx
  10132c:	d3 e8                	shr    %cl,%eax
  10132e:	89 45 c4             	mov    %eax,-0x3c(%ebp)
  101331:	b9 20 00 00 00       	mov    $0x20,%ecx
  101336:	29 f9                	sub    %edi,%ecx
  101338:	d3 e3                	shl    %cl,%ebx
  10133a:	8b 75 d4             	mov    -0x2c(%ebp),%esi
  10133d:	89 f9                	mov    %edi,%ecx
  10133f:	d3 ee                	shr    %cl,%esi
  101341:	09 de                	or     %ebx,%esi
  101343:	89 f0                	mov    %esi,%eax
  101345:	8b 55 c4             	mov    -0x3c(%ebp),%edx
  101348:	e9 0f fe ff ff       	jmp    10115c <__udivmoddi4+0x50>
  10134d:	8d 76 00             	lea    0x0(%esi),%esi
  101350:	0f 0b                	ud2    
  101352:	66 90                	xchg   %ax,%ax
  101354:	8b 45 18             	mov    0x18(%ebp),%eax
  101357:	85 c0                	test   %eax,%eax
  101359:	0f 85 81 00 00 00    	jne    1013e0 <__udivmoddi4+0x2d4>
  10135f:	31 c0                	xor    %eax,%eax
  101361:	31 d2                	xor    %edx,%edx
  101363:	e9 f4 fd ff ff       	jmp    10115c <__udivmoddi4+0x50>
  101368:	0f bd c9             	bsr    %ecx,%ecx
  10136b:	83 f1 1f             	xor    $0x1f,%ecx
  10136e:	0f bd d3             	bsr    %ebx,%edx
  101371:	83 f2 1f             	xor    $0x1f,%edx
  101374:	89 cb                	mov    %ecx,%ebx
  101376:	29 d3                	sub    %edx,%ebx
  101378:	8d 4b 21             	lea    0x21(%ebx),%ecx
  10137b:	89 4d c8             	mov    %ecx,-0x38(%ebp)
  10137e:	8b 75 d4             	mov    -0x2c(%ebp),%esi
  101381:	83 fb ff             	cmp    $0xffffffff,%ebx
  101384:	74 7a                	je     101400 <__udivmoddi4+0x2f4>
  101386:	83 f9 1f             	cmp    $0x1f,%ecx
  101389:	0f 87 a9 00 00 00    	ja     101438 <__udivmoddi4+0x32c>
  10138f:	ba 20 00 00 00       	mov    $0x20,%edx
  101394:	29 ca                	sub    %ecx,%edx
  101396:	89 c3                	mov    %eax,%ebx
  101398:	d3 eb                	shr    %cl,%ebx
  10139a:	88 d1                	mov    %dl,%cl
  10139c:	d3 e0                	shl    %cl,%eax
  10139e:	89 45 d4             	mov    %eax,-0x2c(%ebp)
  1013a1:	89 f0                	mov    %esi,%eax
  1013a3:	8a 4d c8             	mov    -0x38(%ebp),%cl
  1013a6:	d3 e8                	shr    %cl,%eax
  1013a8:	89 c1                	mov    %eax,%ecx
  1013aa:	8b 45 d4             	mov    -0x2c(%ebp),%eax
  1013ad:	09 c8                	or     %ecx,%eax
  1013af:	88 d1                	mov    %dl,%cl
  1013b1:	d3 e6                	shl    %cl,%esi
  1013b3:	e9 67 fe ff ff       	jmp    10121f <__udivmoddi4+0x113>
  1013b8:	8b 45 18             	mov    0x18(%ebp),%eax
  1013bb:	85 c0                	test   %eax,%eax
  1013bd:	74 12                	je     1013d1 <__udivmoddi4+0x2c5>
  1013bf:	89 d8                	mov    %ebx,%eax
  1013c1:	31 d2                	xor    %edx,%edx
  1013c3:	f7 f7                	div    %edi
  1013c5:	8b 45 18             	mov    0x18(%ebp),%eax
  1013c8:	c7 00 00 00 00 00    	movl   $0x0,(%eax)
  1013ce:	89 50 04             	mov    %edx,0x4(%eax)
  1013d1:	89 d8                	mov    %ebx,%eax
  1013d3:	31 d2                	xor    %edx,%edx
  1013d5:	f7 f7                	div    %edi
  1013d7:	31 d2                	xor    %edx,%edx
  1013d9:	e9 7e fd ff ff       	jmp    10115c <__udivmoddi4+0x50>
  1013de:	66 90                	xchg   %ax,%ax
  1013e0:	8b 45 18             	mov    0x18(%ebp),%eax
  1013e3:	8b 7d d4             	mov    -0x2c(%ebp),%edi
  1013e6:	89 38                	mov    %edi,(%eax)
  1013e8:	89 58 04             	mov    %ebx,0x4(%eax)
  1013eb:	31 c0                	xor    %eax,%eax
  1013ed:	31 d2                	xor    %edx,%edx
  1013ef:	e9 68 fd ff ff       	jmp    10115c <__udivmoddi4+0x50>
  1013f4:	8b 45 d4             	mov    -0x2c(%ebp),%eax
  1013f7:	89 da                	mov    %ebx,%edx
  1013f9:	e9 5e fd ff ff       	jmp    10115c <__udivmoddi4+0x50>
  1013fe:	66 90                	xchg   %ax,%ax
  101400:	31 db                	xor    %ebx,%ebx
  101402:	e9 18 fe ff ff       	jmp    10121f <__udivmoddi4+0x113>
  101407:	90                   	nop
  101408:	8b 45 18             	mov    0x18(%ebp),%eax
  10140b:	85 c0                	test   %eax,%eax
  10140d:	74 0d                	je     10141c <__udivmoddi4+0x310>
  10140f:	21 da                	and    %ebx,%edx
  101411:	8b 45 18             	mov    0x18(%ebp),%eax
  101414:	8b 75 d4             	mov    -0x2c(%ebp),%esi
  101417:	89 30                	mov    %esi,(%eax)
  101419:	89 50 04             	mov    %edx,0x4(%eax)
  10141c:	0f bc cf             	bsf    %edi,%ecx
  10141f:	89 d8                	mov    %ebx,%eax
  101421:	d3 e8                	shr    %cl,%eax
  101423:	31 d2                	xor    %edx,%edx
  101425:	e9 32 fd ff ff       	jmp    10115c <__udivmoddi4+0x50>
  10142a:	66 90                	xchg   %ax,%ax
  10142c:	31 db                	xor    %ebx,%ebx
  10142e:	31 ff                	xor    %edi,%edi
  101430:	e9 ea fd ff ff       	jmp    10121f <__udivmoddi4+0x113>
  101435:	8d 76 00             	lea    0x0(%esi),%esi
  101438:	b9 40 00 00 00       	mov    $0x40,%ecx
  10143d:	2b 4d c8             	sub    -0x38(%ebp),%ecx
  101440:	89 f7                	mov    %esi,%edi
  101442:	d3 e7                	shl    %cl,%edi
  101444:	8d 53 01             	lea    0x1(%ebx),%edx
  101447:	89 c3                	mov    %eax,%ebx
  101449:	d3 e3                	shl    %cl,%ebx
  10144b:	89 55 d4             	mov    %edx,-0x2c(%ebp)
  10144e:	88 d1                	mov    %dl,%cl
  101450:	d3 ee                	shr    %cl,%esi
  101452:	09 f3                	or     %esi,%ebx
  101454:	89 de                	mov    %ebx,%esi
  101456:	8a 4d d4             	mov    -0x2c(%ebp),%cl
  101459:	d3 e8                	shr    %cl,%eax
  10145b:	31 db                	xor    %ebx,%ebx
  10145d:	e9 bd fd ff ff       	jmp    10121f <__udivmoddi4+0x113>
  101462:	66 90                	xchg   %ax,%ax

00101464 <__udivdi3>:
  101464:	55                   	push   %ebp
  101465:	89 e5                	mov    %esp,%ebp
  101467:	50                   	push   %eax
  101468:	6a 00                	push   $0x0
  10146a:	ff 75 14             	pushl  0x14(%ebp)
  10146d:	ff 75 10             	pushl  0x10(%ebp)
  101470:	ff 75 0c             	pushl  0xc(%ebp)
  101473:	ff 75 08             	pushl  0x8(%ebp)
  101476:	e8 91 fc ff ff       	call   10110c <__udivmoddi4>
  10147b:	c9                   	leave  
  10147c:	c3                   	ret    
  10147d:	66 90                	xchg   %ax,%ax
  10147f:	90                   	nop

00101480 <rand>:
  101480:	8b 15 40 05 11 00    	mov    0x110540,%edx
  101486:	89 d0                	mov    %edx,%eax
  101488:	c1 e0 09             	shl    $0x9,%eax
  10148b:	29 d0                	sub    %edx,%eax
  10148d:	8d 0c 82             	lea    (%edx,%eax,4),%ecx
  101490:	89 c8                	mov    %ecx,%eax
  101492:	c1 e0 09             	shl    $0x9,%eax
  101495:	29 c8                	sub    %ecx,%eax
  101497:	01 c0                	add    %eax,%eax
  101499:	01 d0                	add    %edx,%eax
  10149b:	89 c1                	mov    %eax,%ecx
  10149d:	c1 e1 05             	shl    $0x5,%ecx
  1014a0:	01 c8                	add    %ecx,%eax
  1014a2:	c1 e0 02             	shl    $0x2,%eax
  1014a5:	29 d0                	sub    %edx,%eax
  1014a7:	8d 84 82 39 30 00 00 	lea    0x3039(%edx,%eax,4),%eax
  1014ae:	a3 40 05 11 00       	mov    %eax,0x110540
  1014b3:	c1 e8 10             	shr    $0x10,%eax
  1014b6:	25 ff 7f 00 00       	and    $0x7fff,%eax
  1014bb:	c3                   	ret    

001014bc <itoa>:
  1014bc:	55                   	push   %ebp
  1014bd:	89 e5                	mov    %esp,%ebp
  1014bf:	57                   	push   %edi
  1014c0:	56                   	push   %esi
  1014c1:	53                   	push   %ebx
  1014c2:	83 ec 1c             	sub    $0x1c,%esp
  1014c5:	8b 7d 08             	mov    0x8(%ebp),%edi
  1014c8:	85 ff                	test   %edi,%edi
  1014ca:	79 08                	jns    1014d4 <itoa+0x18>
  1014cc:	f7 df                	neg    %edi
  1014ce:	8b 45 0c             	mov    0xc(%ebp),%eax
  1014d1:	c6 00 2d             	movb   $0x2d,(%eax)
  1014d4:	c7 45 e4 13 00 00 00 	movl   $0x13,-0x1c(%ebp)
  1014db:	c7 45 e0 00 00 00 00 	movl   $0x0,-0x20(%ebp)
  1014e2:	89 fb                	mov    %edi,%ebx
  1014e4:	8b 45 e4             	mov    -0x1c(%ebp),%eax
  1014e7:	85 c0                	test   %eax,%eax
  1014e9:	0f 8e b0 00 00 00    	jle    10159f <itoa+0xe3>
  1014ef:	90                   	nop
  1014f0:	31 c9                	xor    %ecx,%ecx
  1014f2:	b8 01 00 00 00       	mov    $0x1,%eax
  1014f7:	31 d2                	xor    %edx,%edx
  1014f9:	8b 7d e4             	mov    -0x1c(%ebp),%edi
  1014fc:	89 5d 08             	mov    %ebx,0x8(%ebp)
  1014ff:	90                   	nop
  101500:	6b f2 0a             	imul   $0xa,%edx,%esi
  101503:	bb 0a 00 00 00       	mov    $0xa,%ebx
  101508:	f7 e3                	mul    %ebx
  10150a:	01 f2                	add    %esi,%edx
  10150c:	41                   	inc    %ecx
  10150d:	39 cf                	cmp    %ecx,%edi
  10150f:	75 ef                	jne    101500 <itoa+0x44>
  101511:	8b 5d 08             	mov    0x8(%ebp),%ebx
  101514:	89 de                	mov    %ebx,%esi
  101516:	89 df                	mov    %ebx,%edi
  101518:	c1 ff 1f             	sar    $0x1f,%edi
  10151b:	83 7d e0 00          	cmpl   $0x0,-0x20(%ebp)
  10151f:	0f 85 97 00 00 00    	jne    1015bc <itoa+0x100>
  101525:	89 5d e8             	mov    %ebx,-0x18(%ebp)
  101528:	89 7d ec             	mov    %edi,-0x14(%ebp)
  10152b:	39 c6                	cmp    %eax,%esi
  10152d:	89 fe                	mov    %edi,%esi
  10152f:	19 d6                	sbb    %edx,%esi
  101531:	73 29                	jae    10155c <itoa+0xa0>
  101533:	85 c9                	test   %ecx,%ecx
  101535:	0f 84 91 00 00 00    	je     1015cc <itoa+0x110>
  10153b:	ff 4d e4             	decl   -0x1c(%ebp)
  10153e:	8b 45 e4             	mov    -0x1c(%ebp),%eax
  101541:	85 c0                	test   %eax,%eax
  101543:	7f ab                	jg     1014f0 <itoa+0x34>
  101545:	8b 75 e8             	mov    -0x18(%ebp),%esi
  101548:	8b 7d ec             	mov    -0x14(%ebp),%edi
  10154b:	89 c1                	mov    %eax,%ecx
  10154d:	b8 01 00 00 00       	mov    $0x1,%eax
  101552:	31 d2                	xor    %edx,%edx
  101554:	39 c6                	cmp    %eax,%esi
  101556:	89 fe                	mov    %edi,%esi
  101558:	19 d6                	sbb    %edx,%esi
  10155a:	72 d7                	jb     101533 <itoa+0x77>
  10155c:	c7 45 e8 00 00 00 00 	movl   $0x0,-0x18(%ebp)
  101563:	89 4d dc             	mov    %ecx,-0x24(%ebp)
  101566:	89 c1                	mov    %eax,%ecx
  101568:	29 cb                	sub    %ecx,%ebx
  10156a:	ff 45 e8             	incl   -0x18(%ebp)
  10156d:	89 df                	mov    %ebx,%edi
  10156f:	c1 ff 1f             	sar    $0x1f,%edi
  101572:	39 c3                	cmp    %eax,%ebx
  101574:	19 d7                	sbb    %edx,%edi
  101576:	73 f0                	jae    101568 <itoa+0xac>
  101578:	8b 4d dc             	mov    -0x24(%ebp),%ecx
  10157b:	8a 45 e8             	mov    -0x18(%ebp),%al
  10157e:	83 c0 30             	add    $0x30,%eax
  101581:	8b 55 e0             	mov    -0x20(%ebp),%edx
  101584:	ff 45 e0             	incl   -0x20(%ebp)
  101587:	8b 7d 0c             	mov    0xc(%ebp),%edi
  10158a:	88 04 17             	mov    %al,(%edi,%edx,1)
  10158d:	85 c9                	test   %ecx,%ecx
  10158f:	74 48                	je     1015d9 <itoa+0x11d>
  101591:	ff 4d e4             	decl   -0x1c(%ebp)
  101594:	8b 45 e4             	mov    -0x1c(%ebp),%eax
  101597:	85 c0                	test   %eax,%eax
  101599:	0f 8f 51 ff ff ff    	jg     1014f0 <itoa+0x34>
  10159f:	8b 4d e4             	mov    -0x1c(%ebp),%ecx
  1015a2:	b8 01 00 00 00       	mov    $0x1,%eax
  1015a7:	31 d2                	xor    %edx,%edx
  1015a9:	89 de                	mov    %ebx,%esi
  1015ab:	89 df                	mov    %ebx,%edi
  1015ad:	c1 ff 1f             	sar    $0x1f,%edi
  1015b0:	83 7d e0 00          	cmpl   $0x0,-0x20(%ebp)
  1015b4:	0f 84 6b ff ff ff    	je     101525 <itoa+0x69>
  1015ba:	66 90                	xchg   %ax,%ax
  1015bc:	39 c3                	cmp    %eax,%ebx
  1015be:	19 d7                	sbb    %edx,%edi
  1015c0:	73 9a                	jae    10155c <itoa+0xa0>
  1015c2:	8b 55 e0             	mov    -0x20(%ebp),%edx
  1015c5:	b0 30                	mov    $0x30,%al
  1015c7:	eb bb                	jmp    101584 <itoa+0xc8>
  1015c9:	8d 76 00             	lea    0x0(%esi),%esi
  1015cc:	8b 45 0c             	mov    0xc(%ebp),%eax
  1015cf:	c6 00 30             	movb   $0x30,(%eax)
  1015d2:	c7 45 e0 01 00 00 00 	movl   $0x1,-0x20(%ebp)
  1015d9:	8b 45 0c             	mov    0xc(%ebp),%eax
  1015dc:	8b 55 e0             	mov    -0x20(%ebp),%edx
  1015df:	c6 04 10 00          	movb   $0x0,(%eax,%edx,1)
  1015e3:	89 d0                	mov    %edx,%eax
  1015e5:	83 c4 1c             	add    $0x1c,%esp
  1015e8:	5b                   	pop    %ebx
  1015e9:	5e                   	pop    %esi
  1015ea:	5f                   	pop    %edi
  1015eb:	5d                   	pop    %ebp
  1015ec:	c3                   	ret    
  1015ed:	66 90                	xchg   %ax,%ax
  1015ef:	90                   	nop

001015f0 <vsprintf>:
  1015f0:	55                   	push   %ebp
  1015f1:	89 e5                	mov    %esp,%ebp
  1015f3:	57                   	push   %edi
  1015f4:	56                   	push   %esi
  1015f5:	53                   	push   %ebx
  1015f6:	83 ec 3c             	sub    $0x3c,%esp
  1015f9:	8b 7d 0c             	mov    0xc(%ebp),%edi
  1015fc:	8b 55 10             	mov    0x10(%ebp),%edx
  1015ff:	8a 07                	mov    (%edi),%al
  101601:	31 db                	xor    %ebx,%ebx
  101603:	84 c0                	test   %al,%al
  101605:	75 19                	jne    101620 <vsprintf+0x30>
  101607:	eb 45                	jmp    10164e <vsprintf+0x5e>
  101609:	8d 76 00             	lea    0x0(%esi),%esi
  10160c:	8b 4d 08             	mov    0x8(%ebp),%ecx
  10160f:	88 04 19             	mov    %al,(%ecx,%ebx,1)
  101612:	43                   	inc    %ebx
  101613:	89 f0                	mov    %esi,%eax
  101615:	89 fe                	mov    %edi,%esi
  101617:	89 c7                	mov    %eax,%edi
  101619:	8a 46 01             	mov    0x1(%esi),%al
  10161c:	84 c0                	test   %al,%al
  10161e:	74 2e                	je     10164e <vsprintf+0x5e>
  101620:	8d 77 01             	lea    0x1(%edi),%esi
  101623:	3c 25                	cmp    $0x25,%al
  101625:	75 e5                	jne    10160c <vsprintf+0x1c>
  101627:	8a 4f 01             	mov    0x1(%edi),%cl
  10162a:	83 c7 02             	add    $0x2,%edi
  10162d:	8d 41 bf             	lea    -0x41(%ecx),%eax
  101630:	3c 37                	cmp    $0x37,%al
  101632:	77 0c                	ja     101640 <vsprintf+0x50>
  101634:	0f b6 c0             	movzbl %al,%eax
  101637:	ff 24 85 2c 24 10 00 	jmp    *0x10242c(,%eax,4)
  10163e:	66 90                	xchg   %ax,%ax
  101640:	8b 45 08             	mov    0x8(%ebp),%eax
  101643:	88 0c 18             	mov    %cl,(%eax,%ebx,1)
  101646:	43                   	inc    %ebx
  101647:	8a 46 01             	mov    0x1(%esi),%al
  10164a:	84 c0                	test   %al,%al
  10164c:	75 d2                	jne    101620 <vsprintf+0x30>
  10164e:	89 d8                	mov    %ebx,%eax
  101650:	8d 65 f4             	lea    -0xc(%ebp),%esp
  101653:	5b                   	pop    %ebx
  101654:	5e                   	pop    %esi
  101655:	5f                   	pop    %edi
  101656:	5d                   	pop    %ebp
  101657:	c3                   	ret    
  101658:	8d 42 04             	lea    0x4(%edx),%eax
  10165b:	89 45 c0             	mov    %eax,-0x40(%ebp)
  10165e:	83 ec 08             	sub    $0x8,%esp
  101661:	8d 45 d3             	lea    -0x2d(%ebp),%eax
  101664:	50                   	push   %eax
  101665:	ff 32                	pushl  (%edx)
  101667:	e8 50 fe ff ff       	call   1014bc <itoa>
  10166c:	89 c2                	mov    %eax,%edx
  10166e:	83 c4 10             	add    $0x10,%esp
  101671:	85 c0                	test   %eax,%eax
  101673:	7e 69                	jle    1016de <vsprintf+0xee>
  101675:	31 c0                	xor    %eax,%eax
  101677:	8b 4d 08             	mov    0x8(%ebp),%ecx
  10167a:	01 d9                	add    %ebx,%ecx
  10167c:	89 5d bc             	mov    %ebx,-0x44(%ebp)
  10167f:	90                   	nop
  101680:	40                   	inc    %eax
  101681:	8a 5c 05 d2          	mov    -0x2e(%ebp,%eax,1),%bl
  101685:	88 5d c4             	mov    %bl,-0x3c(%ebp)
  101688:	88 5c 01 ff          	mov    %bl,-0x1(%ecx,%eax,1)
  10168c:	39 c2                	cmp    %eax,%edx
  10168e:	75 f0                	jne    101680 <vsprintf+0x90>
  101690:	8b 5d bc             	mov    -0x44(%ebp),%ebx
  101693:	01 d3                	add    %edx,%ebx
  101695:	8b 55 c0             	mov    -0x40(%ebp),%edx
  101698:	e9 7c ff ff ff       	jmp    101619 <vsprintf+0x29>
  10169d:	8b 02                	mov    (%edx),%eax
  10169f:	8a 80 ac 23 10 00    	mov    0x1023ac(%eax),%al
  1016a5:	8b 4d 08             	mov    0x8(%ebp),%ecx
  1016a8:	88 04 19             	mov    %al,(%ecx,%ebx,1)
  1016ab:	83 c2 04             	add    $0x4,%edx
  1016ae:	43                   	inc    %ebx
  1016af:	e9 65 ff ff ff       	jmp    101619 <vsprintf+0x29>
  1016b4:	8d 4a 04             	lea    0x4(%edx),%ecx
  1016b7:	8b 12                	mov    (%edx),%edx
  1016b9:	8a 02                	mov    (%edx),%al
  1016bb:	84 c0                	test   %al,%al
  1016bd:	74 27                	je     1016e6 <vsprintf+0xf6>
  1016bf:	29 da                	sub    %ebx,%edx
  1016c1:	89 75 c4             	mov    %esi,-0x3c(%ebp)
  1016c4:	8b 75 08             	mov    0x8(%ebp),%esi
  1016c7:	90                   	nop
  1016c8:	43                   	inc    %ebx
  1016c9:	88 44 1e ff          	mov    %al,-0x1(%esi,%ebx,1)
  1016cd:	8a 04 1a             	mov    (%edx,%ebx,1),%al
  1016d0:	84 c0                	test   %al,%al
  1016d2:	75 f4                	jne    1016c8 <vsprintf+0xd8>
  1016d4:	8b 75 c4             	mov    -0x3c(%ebp),%esi
  1016d7:	89 ca                	mov    %ecx,%edx
  1016d9:	e9 3b ff ff ff       	jmp    101619 <vsprintf+0x29>
  1016de:	8b 55 c0             	mov    -0x40(%ebp),%edx
  1016e1:	e9 33 ff ff ff       	jmp    101619 <vsprintf+0x29>
  1016e6:	89 ca                	mov    %ecx,%edx
  1016e8:	e9 2c ff ff ff       	jmp    101619 <vsprintf+0x29>
  1016ed:	66 90                	xchg   %ax,%ax
  1016ef:	90                   	nop

001016f0 <printf>:
  1016f0:	55                   	push   %ebp
  1016f1:	89 e5                	mov    %esp,%ebp
  1016f3:	57                   	push   %edi
  1016f4:	56                   	push   %esi
  1016f5:	53                   	push   %ebx
  1016f6:	81 ec 90 00 00 00    	sub    $0x90,%esp
  1016fc:	8d 45 0c             	lea    0xc(%ebp),%eax
  1016ff:	50                   	push   %eax
  101700:	ff 75 08             	pushl  0x8(%ebp)
  101703:	8d 9d 68 ff ff ff    	lea    -0x98(%ebp),%ebx
  101709:	53                   	push   %ebx
  10170a:	e8 e1 fe ff ff       	call   1015f0 <vsprintf>
  10170f:	89 c6                	mov    %eax,%esi
  101711:	83 c4 10             	add    $0x10,%esp
  101714:	85 c0                	test   %eax,%eax
  101716:	7e 18                	jle    101730 <printf+0x40>
  101718:	8d 3c 03             	lea    (%ebx,%eax,1),%edi
  10171b:	90                   	nop
  10171c:	83 ec 0c             	sub    $0xc,%esp
  10171f:	0f be 03             	movsbl (%ebx),%eax
  101722:	50                   	push   %eax
  101723:	e8 8c f5 ff ff       	call   100cb4 <putch>
  101728:	43                   	inc    %ebx
  101729:	83 c4 10             	add    $0x10,%esp
  10172c:	39 fb                	cmp    %edi,%ebx
  10172e:	75 ec                	jne    10171c <printf+0x2c>
  101730:	89 f0                	mov    %esi,%eax
  101732:	8d 65 f4             	lea    -0xc(%ebp),%esp
  101735:	5b                   	pop    %ebx
  101736:	5e                   	pop    %esi
  101737:	5f                   	pop    %edi
  101738:	5d                   	pop    %ebp
  101739:	c3                   	ret    
  10173a:	66 90                	xchg   %ax,%ax

0010173c <strcmp>:
  10173c:	55                   	push   %ebp
  10173d:	89 e5                	mov    %esp,%ebp
  10173f:	56                   	push   %esi
  101740:	53                   	push   %ebx
  101741:	8b 5d 08             	mov    0x8(%ebp),%ebx
  101744:	8b 75 0c             	mov    0xc(%ebp),%esi
  101747:	8a 0b                	mov    (%ebx),%cl
  101749:	84 c9                	test   %cl,%cl
  10174b:	75 12                	jne    10175f <strcmp+0x23>
  10174d:	eb 17                	jmp    101766 <strcmp+0x2a>
  10174f:	90                   	nop
  101750:	0f be d1             	movsbl %cl,%edx
  101753:	29 c2                	sub    %eax,%edx
  101755:	75 11                	jne    101768 <strcmp+0x2c>
  101757:	43                   	inc    %ebx
  101758:	46                   	inc    %esi
  101759:	8a 0b                	mov    (%ebx),%cl
  10175b:	84 c9                	test   %cl,%cl
  10175d:	74 09                	je     101768 <strcmp+0x2c>
  10175f:	0f be 06             	movsbl (%esi),%eax
  101762:	84 c0                	test   %al,%al
  101764:	75 ea                	jne    101750 <strcmp+0x14>
  101766:	31 d2                	xor    %edx,%edx
  101768:	89 d0                	mov    %edx,%eax
  10176a:	5b                   	pop    %ebx
  10176b:	5e                   	pop    %esi
  10176c:	5d                   	pop    %ebp
  10176d:	c3                   	ret    
  10176e:	66 90                	xchg   %ax,%ax

00101770 <strncmp>:
  101770:	55                   	push   %ebp
  101771:	89 e5                	mov    %esp,%ebp
  101773:	53                   	push   %ebx
  101774:	8b 55 08             	mov    0x8(%ebp),%edx
  101777:	8b 45 0c             	mov    0xc(%ebp),%eax
  10177a:	8b 4d 10             	mov    0x10(%ebp),%ecx
  10177d:	01 c1                	add    %eax,%ecx
  10177f:	eb 0d                	jmp    10178e <strncmp+0x1e>
  101781:	8d 76 00             	lea    0x0(%esi),%esi
  101784:	42                   	inc    %edx
  101785:	40                   	inc    %eax
  101786:	8a 58 ff             	mov    -0x1(%eax),%bl
  101789:	38 5a ff             	cmp    %bl,-0x1(%edx)
  10178c:	75 0e                	jne    10179c <strncmp+0x2c>
  10178e:	39 c8                	cmp    %ecx,%eax
  101790:	75 f2                	jne    101784 <strncmp+0x14>
  101792:	b8 01 00 00 00       	mov    $0x1,%eax
  101797:	8b 5d fc             	mov    -0x4(%ebp),%ebx
  10179a:	c9                   	leave  
  10179b:	c3                   	ret    
  10179c:	31 c0                	xor    %eax,%eax
  10179e:	8b 5d fc             	mov    -0x4(%ebp),%ebx
  1017a1:	c9                   	leave  
  1017a2:	c3                   	ret    
  1017a3:	90                   	nop

001017a4 <memcpy>:
  1017a4:	55                   	push   %ebp
  1017a5:	89 e5                	mov    %esp,%ebp
  1017a7:	57                   	push   %edi
  1017a8:	56                   	push   %esi
  1017a9:	8b 55 08             	mov    0x8(%ebp),%edx
  1017ac:	8b 75 0c             	mov    0xc(%ebp),%esi
  1017af:	8b 45 10             	mov    0x10(%ebp),%eax
  1017b2:	85 c0                	test   %eax,%eax
  1017b4:	74 0b                	je     1017c1 <memcpy+0x1d>
  1017b6:	01 d0                	add    %edx,%eax
  1017b8:	89 d7                	mov    %edx,%edi
  1017ba:	66 90                	xchg   %ax,%ax
  1017bc:	a4                   	movsb  %ds:(%esi),%es:(%edi)
  1017bd:	39 c7                	cmp    %eax,%edi
  1017bf:	75 fb                	jne    1017bc <memcpy+0x18>
  1017c1:	89 d0                	mov    %edx,%eax
  1017c3:	5e                   	pop    %esi
  1017c4:	5f                   	pop    %edi
  1017c5:	5d                   	pop    %ebp
  1017c6:	c3                   	ret    
